(dp0
S'policy'
p1
(dp2
(I42
I10
tp3
cnumpy.core.multiarray
scalar
p4
(cnumpy
dtype
p5
(S'i8'
p6
I0
I1
tp7
Rp8
(I3
S'<'
p9
NNNI-1
I-1
I0
tp10
bS'\x01\x00\x00\x00\x00\x00\x00\x00'
p11
tp12
Rp13
s(I90
I0
tp14
g4
(g8
S'\x01\x00\x00\x00\x00\x00\x00\x00'
p15
tp16
Rp17
s(I46
I12
tp18
g4
(g8
S'\x01\x00\x00\x00\x00\x00\x00\x00'
p19
tp20
Rp21
s(I44
I4
tp22
g4
(g8
S'\x01\x00\x00\x00\x00\x00\x00\x00'
p23
tp24
Rp25
s(I92
I14
tp26
g4
(g8
S'\x01\x00\x00\x00\x00\x00\x00\x00'
p27
tp28
Rp29
s(I8
I5
tp30
g4
(g8
S'\x00\x00\x00\x00\x00\x00\x00\x00'
p31
tp32
Rp33
s(I32
I2
tp34
g4
(g8
S'\x00\x00\x00\x00\x00\x00\x00\x00'
p35
tp36
Rp37
s(I80
I12
tp38
g4
(g8
S'\x01\x00\x00\x00\x00\x00\x00\x00'
p39
tp40
Rp41
s(I36
I8
tp42
g4
(g8
S'\x01\x00\x00\x00\x00\x00\x00\x00'
p43
tp44
Rp45
s(I34
I8
tp46
g4
(g8
S'\x01\x00\x00\x00\x00\x00\x00\x00'
p47
tp48
Rp49
s(I78
I0
tp50
g4
(g8
S'\x01\x00\x00\x00\x00\x00\x00\x00'
p51
tp52
Rp53
s(I82
I14
tp54
g4
(g8
S'\x01\x00\x00\x00\x00\x00\x00\x00'
p55
tp56
Rp57
s(I38
I2
tp58
g4
(g8
S'\x01\x00\x00\x00\x00\x00\x00\x00'
p59
tp60
Rp61
s(I96
I5
tp62
g4
(g8
S'\x01\x00\x00\x00\x00\x00\x00\x00'
p63
tp64
Rp65
s(I86
I8
tp66
g4
(g8
S'\x01\x00\x00\x00\x00\x00\x00\x00'
p67
tp68
Rp69
s(I26
I12
tp70
g4
(g8
S'\x01\x00\x00\x00\x00\x00\x00\x00'
p71
tp72
Rp73
s(I50
I1
tp74
g4
(g8
S'\x01\x00\x00\x00\x00\x00\x00\x00'
p75
tp76
Rp77
s(I74
I2
tp78
g4
(g8
S'\x01\x00\x00\x00\x00\x00\x00\x00'
p79
tp80
Rp81
s(I72
I2
tp82
g4
(g8
S'\x00\x00\x00\x00\x00\x00\x00\x00'
p83
tp84
Rp85
s(I30
I14
tp86
g4
(g8
S'\x01\x00\x00\x00\x00\x00\x00\x00'
p87
tp88
Rp89
s(I88
I17
tp90
g4
(g8
S'\x01\x00\x00\x00\x00\x00\x00\x00'
p91
tp92
Rp93
s(I28
I10
tp94
g4
(g8
S'\x00\x00\x00\x00\x00\x00\x00\x00'
p95
tp96
Rp97
s(I76
I12
tp98
g4
(g8
S'\x01\x00\x00\x00\x00\x00\x00\x00'
p99
tp100
Rp101
s(I100
I17
tp102
g4
(g8
S'\x01\x00\x00\x00\x00\x00\x00\x00'
p103
tp104
Rp105
s(I68
I14
tp106
g4
(g8
S'\x01\x00\x00\x00\x00\x00\x00\x00'
p107
tp108
Rp109
s(I16
I0
tp110
g4
(g8
S'\x01\x00\x00\x00\x00\x00\x00\x00'
p111
tp112
Rp113
s(I90
I11
tp114
g4
(g8
S'\x01\x00\x00\x00\x00\x00\x00\x00'
p115
tp116
Rp117
s(I30
I16
tp118
g4
(g8
S'\x01\x00\x00\x00\x00\x00\x00\x00'
p119
tp120
Rp121
s(I20
I14
tp122
g4
(g8
S'\x00\x00\x00\x00\x00\x00\x00\x00'
p123
tp124
Rp125
s(I44
I3
tp126
g4
(g8
S'\x00\x00\x00\x00\x00\x00\x00\x00'
p127
tp128
Rp129
s(I68
I0
tp130
g4
(g8
S'\x01\x00\x00\x00\x00\x00\x00\x00'
p131
tp132
Rp133
s(I92
I5
tp134
g4
(g8
S'\x01\x00\x00\x00\x00\x00\x00\x00'
p135
tp136
Rp137
s(I92
I17
tp138
g4
(g8
S'\x01\x00\x00\x00\x00\x00\x00\x00'
p139
tp140
Rp141
s(I22
I12
tp142
g4
(g8
S'\x01\x00\x00\x00\x00\x00\x00\x00'
p143
tp144
Rp145
s(I80
I3
tp146
g4
(g8
S'\x01\x00\x00\x00\x00\x00\x00\x00'
p147
tp148
Rp149
s(I62
I14
tp150
g4
(g8
S'\x01\x00\x00\x00\x00\x00\x00\x00'
p151
tp152
Rp153
s(I94
I10
tp154
g4
(g8
S'\x01\x00\x00\x00\x00\x00\x00\x00'
p155
tp156
Rp157
s(I34
I3
tp158
g4
(g8
S'\x01\x00\x00\x00\x00\x00\x00\x00'
p159
tp160
Rp161
s(I58
I4
tp162
g4
(g8
S'\x01\x00\x00\x00\x00\x00\x00\x00'
p163
tp164
Rp165
s(I82
I9
tp166
g4
(g8
S'\x01\x00\x00\x00\x00\x00\x00\x00'
p167
tp168
Rp169
s(I60
I10
tp170
g4
(g8
S'\x01\x00\x00\x00\x00\x00\x00\x00'
p171
tp172
Rp173
s(I14
I8
tp174
g4
(g8
S'\x01\x00\x00\x00\x00\x00\x00\x00'
p175
tp176
Rp177
s(I38
I5
tp178
g4
(g8
S'\x01\x00\x00\x00\x00\x00\x00\x00'
p179
tp180
Rp181
s(I62
I6
tp182
g4
(g8
S'\x02\x00\x00\x00\x00\x00\x00\x00'
p183
tp184
Rp185
s(I86
I3
tp186
g4
(g8
S'\x01\x00\x00\x00\x00\x00\x00\x00'
p187
tp188
Rp189
s(I74
I13
tp190
g4
(g8
S'\x00\x00\x00\x00\x00\x00\x00\x00'
p191
tp192
Rp193
s(I48
I8
tp194
g4
(g8
S'\x01\x00\x00\x00\x00\x00\x00\x00'
p195
tp196
Rp197
s(I72
I10
tp198
g4
(g8
S'\x01\x00\x00\x00\x00\x00\x00\x00'
p199
tp200
Rp201
s(I88
I8
tp202
g4
(g8
S'\x01\x00\x00\x00\x00\x00\x00\x00'
p203
tp204
Rp205
s(I28
I1
tp206
g4
(g8
S'\x01\x00\x00\x00\x00\x00\x00\x00'
p207
tp208
Rp209
s(I52
I6
tp210
g4
(g8
S'\x01\x00\x00\x00\x00\x00\x00\x00'
p211
tp212
Rp213
s(I76
I11
tp214
g4
(g8
S'\x01\x00\x00\x00\x00\x00\x00\x00'
p215
tp216
Rp217
s(I16
I7
tp218
g4
(g8
S'\x01\x00\x00\x00\x00\x00\x00\x00'
p219
tp220
Rp221
s(I90
I18
tp222
g4
(g8
S'\x01\x00\x00\x00\x00\x00\x00\x00'
p223
tp224
Rp225
s(I64
I1
tp226
g4
(g8
S'\x01\x00\x00\x00\x00\x00\x00\x00'
p227
tp228
Rp229
s(I68
I15
tp230
g4
(g8
S'\x01\x00\x00\x00\x00\x00\x00\x00'
p231
tp232
Rp233
s(I42
I6
tp234
g4
(g8
S'\x01\x00\x00\x00\x00\x00\x00\x00'
p235
tp236
Rp237
s(I66
I11
tp238
g4
(g8
S'\x01\x00\x00\x00\x00\x00\x00\x00'
p239
tp240
Rp241
s(I32
I16
tp242
g4
(g8
S'\x01\x00\x00\x00\x00\x00\x00\x00'
p243
tp244
Rp245
s(I22
I7
tp246
g4
(g8
S'\x02\x00\x00\x00\x00\x00\x00\x00'
p247
tp248
Rp249
s(I46
I0
tp250
g4
(g8
S'\x01\x00\x00\x00\x00\x00\x00\x00'
p251
tp252
Rp253
s(I70
I13
tp254
g4
(g8
S'\x01\x00\x00\x00\x00\x00\x00\x00'
p255
tp256
Rp257
s(I44
I16
tp258
g4
(g8
S'\x01\x00\x00\x00\x00\x00\x00\x00'
p259
tp260
Rp261
s(I84
I16
tp262
g4
(g8
S'\x01\x00\x00\x00\x00\x00\x00\x00'
p263
tp264
Rp265
s(I58
I15
tp266
g4
(g8
S'\x01\x00\x00\x00\x00\x00\x00\x00'
p267
tp268
Rp269
s(I82
I0
tp270
g4
(g8
S'\x01\x00\x00\x00\x00\x00\x00\x00'
p271
tp272
Rp273
s(I80
I16
tp274
g4
(g8
S'\x01\x00\x00\x00\x00\x00\x00\x00'
p275
tp276
Rp277
s(I62
I9
tp278
g4
(g8
S'\x01\x00\x00\x00\x00\x00\x00\x00'
p279
tp280
Rp281
s(I36
I4
tp282
g4
(g8
S'\x00\x00\x00\x00\x00\x00\x00\x00'
p283
tp284
Rp285
s(I60
I9
tp286
g4
(g8
S'\x01\x00\x00\x00\x00\x00\x00\x00'
p287
tp288
Rp289
s(I48
I15
tp290
g4
(g8
S'\x01\x00\x00\x00\x00\x00\x00\x00'
p291
tp292
Rp293
s(I96
I9
tp294
g4
(g8
S'\x02\x00\x00\x00\x00\x00\x00\x00'
p295
tp296
Rp297
s(I52
I13
tp298
g4
(g8
S'\x02\x00\x00\x00\x00\x00\x00\x00'
p299
tp300
Rp301
s(I76
I2
tp302
g4
(g8
S'\x01\x00\x00\x00\x00\x00\x00\x00'
p303
tp304
Rp305
s(I50
I13
tp306
g4
(g8
S'\x01\x00\x00\x00\x00\x00\x00\x00'
p307
tp308
Rp309
s(I40
I11
tp310
g4
(g8
S'\x01\x00\x00\x00\x00\x00\x00\x00'
p311
tp312
Rp313
s(I30
I2
tp314
g4
(g8
S'\x01\x00\x00\x00\x00\x00\x00\x00'
p315
tp316
Rp317
s(I54
I15
tp318
g4
(g8
S'\x00\x00\x00\x00\x00\x00\x00\x00'
p319
tp320
Rp321
s(I68
I12
tp322
g4
(g8
S'\x00\x00\x00\x00\x00\x00\x00\x00'
p323
tp324
Rp325
s(I42
I1
tp326
g4
(g8
S'\x01\x00\x00\x00\x00\x00\x00\x00'
p327
tp328
Rp329
s(I66
I2
tp330
g4
(g8
S'\x01\x00\x00\x00\x00\x00\x00\x00'
p331
tp332
Rp333
s(I90
I7
tp334
g4
(g8
S'\x01\x00\x00\x00\x00\x00\x00\x00'
p335
tp336
Rp337
s(I100
I0
tp338
g4
(g8
S'\x01\x00\x00\x00\x00\x00\x00\x00'
p339
tp340
Rp341
s(I46
I11
tp342
g4
(g8
S'\x01\x00\x00\x00\x00\x00\x00\x00'
p343
tp344
Rp345
s(I70
I4
tp346
g4
(g8
S'\x01\x00\x00\x00\x00\x00\x00\x00'
p347
tp348
Rp349
s(I44
I15
tp350
g4
(g8
S'\x01\x00\x00\x00\x00\x00\x00\x00'
p351
tp352
Rp353
s(I84
I1
tp354
g4
(g8
S'\x01\x00\x00\x00\x00\x00\x00\x00'
p355
tp356
Rp357
s(I8
I0
tp358
g4
(g8
S'\x01\x00\x00\x00\x00\x00\x00\x00'
p359
tp360
Rp361
s(I32
I13
tp362
g4
(g8
S'\x02\x00\x00\x00\x00\x00\x00\x00'
p363
tp364
Rp365
s(I62
I8
tp366
g4
(g8
S'\x00\x00\x00\x00\x00\x00\x00\x00'
p367
tp368
Rp369
s(I78
I10
tp370
g4
(g8
S'\x01\x00\x00\x00\x00\x00\x00\x00'
p371
tp372
Rp373
s(I36
I3
tp374
g4
(g8
S'\x01\x00\x00\x00\x00\x00\x00\x00'
p375
tp376
Rp377
s(I60
I0
tp378
g4
(g8
S'\x01\x00\x00\x00\x00\x00\x00\x00'
p379
tp380
Rp381
s(I34
I15
tp382
g4
(g8
S'\x01\x00\x00\x00\x00\x00\x00\x00'
p383
tp384
Rp385
s(I94
I7
tp386
g4
(g8
S'\x01\x00\x00\x00\x00\x00\x00\x00'
p387
tp388
Rp389
s(I48
I6
tp390
g4
(g8
S'\x01\x00\x00\x00\x00\x00\x00\x00'
p391
tp392
Rp393
s(I38
I9
tp394
g4
(g8
S'\x01\x00\x00\x00\x00\x00\x00\x00'
p395
tp396
Rp397
s(I96
I0
tp398
g4
(g8
S'\x00\x00\x00\x00\x00\x00\x00\x00'
p399
tp400
Rp401
s(I6
I6
tp402
g4
(g8
S'\x00\x00\x00\x00\x00\x00\x00\x00'
p403
tp404
Rp405
s(I26
I3
tp406
g4
(g8
S'\x01\x00\x00\x00\x00\x00\x00\x00'
p407
tp408
Rp409
s(I50
I4
tp410
g4
(g8
S'\x01\x00\x00\x00\x00\x00\x00\x00'
p411
tp412
Rp413
s(I56
I10
tp414
g4
(g8
S'\x01\x00\x00\x00\x00\x00\x00\x00'
p415
tp416
Rp417
s(I72
I8
tp418
g4
(g8
S'\x01\x00\x00\x00\x00\x00\x00\x00'
p419
tp420
Rp421
s(I88
I5
tp422
g4
(g8
S'\x01\x00\x00\x00\x00\x00\x00\x00'
p423
tp424
Rp425
s(I30
I5
tp426
g4
(g8
S'\x01\x00\x00\x00\x00\x00\x00\x00'
p427
tp428
Rp429
s(I54
I6
tp430
g4
(g8
S'\x01\x00\x00\x00\x00\x00\x00\x00'
p431
tp432
Rp433
s(I78
I3
tp434
g4
(g8
S'\x00\x00\x00\x00\x00\x00\x00\x00'
p435
tp436
Rp437
s(I42
I8
tp438
g4
(g8
S'\x01\x00\x00\x00\x00\x00\x00\x00'
p439
tp440
Rp441
s(I90
I14
tp442
g4
(g8
S'\x01\x00\x00\x00\x00\x00\x00\x00'
p443
tp444
Rp445
s(I100
I7
tp446
g4
(g8
S'\x00\x00\x00\x00\x00\x00\x00\x00'
p447
tp448
Rp449
s(I20
I1
tp450
g4
(g8
S'\x01\x00\x00\x00\x00\x00\x00\x00'
p451
tp452
Rp453
s(I44
I6
tp454
g4
(g8
S'\x02\x00\x00\x00\x00\x00\x00\x00'
p455
tp456
Rp457
s(I92
I8
tp458
g4
(g8
S'\x02\x00\x00\x00\x00\x00\x00\x00'
p459
tp460
Rp461
s(I58
I17
tp462
g4
(g8
S'\x01\x00\x00\x00\x00\x00\x00\x00'
p463
tp464
Rp465
s(I56
I1
tp466
g4
(g8
S'\x00\x00\x00\x00\x00\x00\x00\x00'
p467
tp468
Rp469
s(I80
I14
tp470
g4
(g8
S'\x01\x00\x00\x00\x00\x00\x00\x00'
p471
tp472
Rp473
s(I70
I17
tp474
g4
(g8
S'\x01\x00\x00\x00\x00\x00\x00\x00'
p475
tp476
Rp477
s(I94
I18
tp478
g4
(g8
S'\x01\x00\x00\x00\x00\x00\x00\x00'
p479
tp480
Rp481
s(I36
I10
tp482
g4
(g8
S'\x01\x00\x00\x00\x00\x00\x00\x00'
p483
tp484
Rp485
s(I84
I12
tp486
g4
(g8
S'\x01\x00\x00\x00\x00\x00\x00\x00'
p487
tp488
Rp489
s(I82
I12
tp490
g4
(g8
S'\x01\x00\x00\x00\x00\x00\x00\x00'
p491
tp492
Rp493
s(I38
I0
tp494
g4
(g8
S'\x01\x00\x00\x00\x00\x00\x00\x00'
p495
tp496
Rp497
s(I96
I7
tp498
g4
(g8
S'\x01\x00\x00\x00\x00\x00\x00\x00'
p499
tp500
Rp501
s(I86
I14
tp502
g4
(g8
S'\x01\x00\x00\x00\x00\x00\x00\x00'
p503
tp504
Rp505
s(I100
I11
tp506
g4
(g8
S'\x01\x00\x00\x00\x00\x00\x00\x00'
p507
tp508
Rp509
s(I26
I10
tp510
g4
(g8
S'\x02\x00\x00\x00\x00\x00\x00\x00'
p511
tp512
Rp513
s(I74
I0
tp514
g4
(g8
S'\x01\x00\x00\x00\x00\x00\x00\x00'
p515
tp516
Rp517
s(I98
I5
tp518
g4
(g8
S'\x01\x00\x00\x00\x00\x00\x00\x00'
p519
tp520
Rp521
s(I72
I16
tp522
g4
(g8
S'\x01\x00\x00\x00\x00\x00\x00\x00'
p523
tp524
Rp525
s(I30
I12
tp526
g4
(g8
S'\x01\x00\x00\x00\x00\x00\x00\x00'
p527
tp528
Rp529
s(I28
I4
tp530
g4
(g8
S'\x02\x00\x00\x00\x00\x00\x00\x00'
p531
tp532
Rp533
s(I76
I14
tp534
g4
(g8
S'\x00\x00\x00\x00\x00\x00\x00\x00'
p535
tp536
Rp537
s(I16
I2
tp538
g4
(g8
S'\x01\x00\x00\x00\x00\x00\x00\x00'
p539
tp540
Rp541
s(I90
I9
tp542
g4
(g8
S'\x01\x00\x00\x00\x00\x00\x00\x00'
p543
tp544
Rp545
s(I64
I12
tp546
g4
(g8
S'\x00\x00\x00\x00\x00\x00\x00\x00'
p547
tp548
Rp549
s(I20
I8
tp550
g4
(g8
S'\x02\x00\x00\x00\x00\x00\x00\x00'
p551
tp552
Rp553
s(I18
I8
tp554
g4
(g8
S'\x02\x00\x00\x00\x00\x00\x00\x00'
p555
tp556
Rp557
s(I92
I7
tp558
g4
(g8
S'\x00\x00\x00\x00\x00\x00\x00\x00'
p559
tp560
Rp561
s(I66
I14
tp562
g4
(g8
S'\x01\x00\x00\x00\x00\x00\x00\x00'
p563
tp564
Rp565
s(I100
I6
tp566
g4
(g8
S'\x01\x00\x00\x00\x00\x00\x00\x00'
p567
tp568
Rp569
s(I56
I8
tp570
g4
(g8
S'\x01\x00\x00\x00\x00\x00\x00\x00'
p571
tp572
Rp573
s(I80
I5
tp574
g4
(g8
S'\x01\x00\x00\x00\x00\x00\x00\x00'
p575
tp576
Rp577
s(I70
I8
tp578
g4
(g8
S'\x00\x00\x00\x00\x00\x00\x00\x00'
p579
tp580
Rp581
s(I10
I12
tp582
g4
(g8
S'\x00\x00\x00\x00\x00\x00\x00\x00'
p583
tp584
Rp585
s(I34
I1
tp586
g4
(g8
S'\x01\x00\x00\x00\x00\x00\x00\x00'
p587
tp588
Rp589
s(I58
I2
tp590
g4
(g8
S'\x01\x00\x00\x00\x00\x00\x00\x00'
p591
tp592
Rp593
s(I82
I7
tp594
g4
(g8
S'\x01\x00\x00\x00\x00\x00\x00\x00'
p595
tp596
Rp597
s(I96
I16
tp598
g4
(g8
S'\x01\x00\x00\x00\x00\x00\x00\x00'
p599
tp600
Rp601
s(I14
I14
tp602
g4
(g8
S'\x00\x00\x00\x00\x00\x00\x00\x00'
p603
tp604
Rp605
s(I12
I10
tp606
g4
(g8
S'\x00\x00\x00\x00\x00\x00\x00\x00'
p607
tp608
Rp609
s(I86
I1
tp610
g4
(g8
S'\x01\x00\x00\x00\x00\x00\x00\x00'
p611
tp612
Rp613
s(I60
I12
tp614
g4
(g8
S'\x01\x00\x00\x00\x00\x00\x00\x00'
p615
tp616
Rp617
s(I0
I0
tp618
g4
(g8
S'\x00\x00\x00\x00\x00\x00\x00\x00'
p619
tp620
Rp621
s(I74
I11
tp622
g4
(g8
S'\x01\x00\x00\x00\x00\x00\x00\x00'
p623
tp624
Rp625
s(I48
I10
tp626
g4
(g8
S'\x01\x00\x00\x00\x00\x00\x00\x00'
p627
tp628
Rp629
s(I54
I16
tp630
g4
(g8
S'\x02\x00\x00\x00\x00\x00\x00\x00'
p631
tp632
Rp633
s(I78
I13
tp634
g4
(g8
S'\x01\x00\x00\x00\x00\x00\x00\x00'
p635
tp636
Rp637
s(I52
I0
tp638
g4
(g8
S'\x01\x00\x00\x00\x00\x00\x00\x00'
p639
tp640
Rp641
s(I76
I5
tp642
g4
(g8
S'\x01\x00\x00\x00\x00\x00\x00\x00'
p643
tp644
Rp645
s(I50
I16
tp646
g4
(g8
S'\x01\x00\x00\x00\x00\x00\x00\x00'
p647
tp648
Rp649
s(I72
I6
tp650
g4
(g8
S'\x01\x00\x00\x00\x00\x00\x00\x00'
p651
tp652
Rp653
s(I92
I16
tp654
g4
(g8
S'\x01\x00\x00\x00\x00\x00\x00\x00'
p655
tp656
Rp657
s(I40
I6
tp658
g4
(g8
S'\x01\x00\x00\x00\x00\x00\x00\x00'
p659
tp660
Rp661
s(I64
I3
tp662
g4
(g8
S'\x01\x00\x00\x00\x00\x00\x00\x00'
p663
tp664
Rp665
s(I54
I10
tp666
g4
(g8
S'\x01\x00\x00\x00\x00\x00\x00\x00'
p667
tp668
Rp669
s(I68
I9
tp670
g4
(g8
S'\x02\x00\x00\x00\x00\x00\x00\x00'
p671
tp672
Rp673
s(I42
I4
tp674
g4
(g8
S'\x01\x00\x00\x00\x00\x00\x00\x00'
p675
tp676
Rp677
s(I66
I9
tp678
g4
(g8
S'\x01\x00\x00\x00\x00\x00\x00\x00'
p679
tp680
Rp681
s(I40
I10
tp682
g4
(g8
S'\x01\x00\x00\x00\x00\x00\x00\x00'
p683
tp684
Rp685
s(I46
I6
tp686
g4
(g8
S'\x02\x00\x00\x00\x00\x00\x00\x00'
p687
tp688
Rp689
s(I70
I3
tp690
g4
(g8
S'\x02\x00\x00\x00\x00\x00\x00\x00'
p691
tp692
Rp693
s(I84
I18
tp694
g4
(g8
S'\x01\x00\x00\x00\x00\x00\x00\x00'
p695
tp696
Rp697
s(I58
I13
tp698
g4
(g8
S'\x01\x00\x00\x00\x00\x00\x00\x00'
p699
tp700
Rp701
s(I32
I8
tp702
g4
(g8
S'\x01\x00\x00\x00\x00\x00\x00\x00'
p703
tp704
Rp705
s(I80
I18
tp706
g4
(g8
S'\x01\x00\x00\x00\x00\x00\x00\x00'
p707
tp708
Rp709
s(I64
I10
tp710
g4
(g8
S'\x02\x00\x00\x00\x00\x00\x00\x00'
p711
tp712
Rp713
s(I62
I15
tp714
g4
(g8
S'\x01\x00\x00\x00\x00\x00\x00\x00'
p715
tp716
Rp717
s(I36
I6
tp718
g4
(g8
S'\x01\x00\x00\x00\x00\x00\x00\x00'
p719
tp720
Rp721
s(I60
I11
tp722
g4
(g8
S'\x02\x00\x00\x00\x00\x00\x00\x00'
p723
tp724
Rp725
s(I48
I1
tp726
g4
(g8
S'\x01\x00\x00\x00\x00\x00\x00\x00'
p727
tp728
Rp729
s(I98
I10
tp730
g4
(g8
S'\x01\x00\x00\x00\x00\x00\x00\x00'
p731
tp732
Rp733
s(I62
I17
tp734
g4
(g8
S'\x01\x00\x00\x00\x00\x00\x00\x00'
p735
tp736
Rp737
s(I84
I11
tp738
g4
(g8
S'\x01\x00\x00\x00\x00\x00\x00\x00'
p739
tp740
Rp741
s(I100
I9
tp742
g4
(g8
S'\x01\x00\x00\x00\x00\x00\x00\x00'
p743
tp744
Rp745
s(I52
I15
tp746
g4
(g8
S'\x01\x00\x00\x00\x00\x00\x00\x00'
p747
tp748
Rp749
s(I26
I6
tp750
g4
(g8
S'\x01\x00\x00\x00\x00\x00\x00\x00'
p751
tp752
Rp753
s(I50
I11
tp754
g4
(g8
S'\x01\x00\x00\x00\x00\x00\x00\x00'
p755
tp756
Rp757
s(I90
I6
tp758
g4
(g8
S'\x00\x00\x00\x00\x00\x00\x00\x00'
p759
tp760
Rp761
s(I40
I13
tp762
g4
(g8
S'\x01\x00\x00\x00\x00\x00\x00\x00'
p763
tp764
Rp765
s(I30
I0
tp766
g4
(g8
S'\x01\x00\x00\x00\x00\x00\x00\x00'
p767
tp768
Rp769
s(I54
I13
tp770
g4
(g8
S'\x01\x00\x00\x00\x00\x00\x00\x00'
p771
tp772
Rp773
s(I42
I15
tp774
g4
(g8
S'\x01\x00\x00\x00\x00\x00\x00\x00'
p775
tp776
Rp777
s(I66
I0
tp778
g4
(g8
S'\x00\x00\x00\x00\x00\x00\x00\x00'
p779
tp780
Rp781
s(I90
I5
tp782
g4
(g8
S'\x01\x00\x00\x00\x00\x00\x00\x00'
p783
tp784
Rp785
s(I86
I18
tp786
g4
(g8
S'\x00\x00\x00\x00\x00\x00\x00\x00'
p787
tp788
Rp789
s(I94
I13
tp790
g4
(g8
S'\x01\x00\x00\x00\x00\x00\x00\x00'
p791
tp792
Rp793
s(I22
I5
tp794
g4
(g8
S'\x01\x00\x00\x00\x00\x00\x00\x00'
p795
tp796
Rp797
s(I46
I9
tp798
g4
(g8
S'\x01\x00\x00\x00\x00\x00\x00\x00'
p799
tp800
Rp801
s(I44
I9
tp802
g4
(g8
S'\x01\x00\x00\x00\x00\x00\x00\x00'
p803
tp804
Rp805
s(I84
I6
tp806
g4
(g8
S'\x01\x00\x00\x00\x00\x00\x00\x00'
p807
tp808
Rp809
s(I68
I2
tp810
g4
(g8
S'\x00\x00\x00\x00\x00\x00\x00\x00'
p811
tp812
Rp813
s(I100
I4
tp814
g4
(g8
S'\x02\x00\x00\x00\x00\x00\x00\x00'
p815
tp816
Rp817
s(I32
I15
tp818
g4
(g8
S'\x01\x00\x00\x00\x00\x00\x00\x00'
p819
tp820
Rp821
s(I80
I9
tp822
g4
(g8
S'\x01\x00\x00\x00\x00\x00\x00\x00'
p823
tp824
Rp825
s(I36
I13
tp826
g4
(g8
S'\x00\x00\x00\x00\x00\x00\x00\x00'
p827
tp828
Rp829
s(I60
I2
tp830
g4
(g8
S'\x01\x00\x00\x00\x00\x00\x00\x00'
p831
tp832
Rp833
s(I84
I7
tp834
g4
(g8
S'\x01\x00\x00\x00\x00\x00\x00\x00'
p835
tp836
Rp837
s(I88
I15
tp838
g4
(g8
S'\x01\x00\x00\x00\x00\x00\x00\x00'
p839
tp840
Rp841
s(I78
I4
tp842
g4
(g8
S'\x00\x00\x00\x00\x00\x00\x00\x00'
p843
tp844
Rp845
s(I62
I4
tp846
g4
(g8
S'\x01\x00\x00\x00\x00\x00\x00\x00'
p847
tp848
Rp849
s(I24
I11
tp850
g4
(g8
S'\x00\x00\x00\x00\x00\x00\x00\x00'
p851
tp852
Rp853
s(I14
I2
tp854
g4
(g8
S'\x00\x00\x00\x00\x00\x00\x00\x00'
p855
tp856
Rp857
s(I38
I15
tp858
g4
(g8
S'\x01\x00\x00\x00\x00\x00\x00\x00'
p859
tp860
Rp861
s(I94
I0
tp862
g4
(g8
S'\x01\x00\x00\x00\x00\x00\x00\x00'
p863
tp864
Rp865
s(I26
I1
tp866
g4
(g8
S'\x01\x00\x00\x00\x00\x00\x00\x00'
p867
tp868
Rp869
s(I50
I2
tp870
g4
(g8
S'\x01\x00\x00\x00\x00\x00\x00\x00'
p871
tp872
Rp873
s(I74
I7
tp874
g4
(g8
S'\x01\x00\x00\x00\x00\x00\x00\x00'
p875
tp876
Rp877
s(I98
I8
tp878
g4
(g8
S'\x01\x00\x00\x00\x00\x00\x00\x00'
p879
tp880
Rp881
s(I78
I2
tp882
g4
(g8
S'\x01\x00\x00\x00\x00\x00\x00\x00'
p883
tp884
Rp885
s(I64
I17
tp886
g4
(g8
S'\x01\x00\x00\x00\x00\x00\x00\x00'
p887
tp888
Rp889
s(I54
I4
tp890
g4
(g8
S'\x01\x00\x00\x00\x00\x00\x00\x00'
p891
tp892
Rp893
s(I78
I1
tp894
g4
(g8
S'\x02\x00\x00\x00\x00\x00\x00\x00'
p895
tp896
Rp897
s(I76
I17
tp898
g4
(g8
S'\x01\x00\x00\x00\x00\x00\x00\x00'
p899
tp900
Rp901
s(I98
I17
tp902
g4
(g8
S'\x01\x00\x00\x00\x00\x00\x00\x00'
p903
tp904
Rp905
s(I56
I6
tp906
g4
(g8
S'\x01\x00\x00\x00\x00\x00\x00\x00'
p907
tp908
Rp909
s(I72
I4
tp910
g4
(g8
S'\x01\x00\x00\x00\x00\x00\x00\x00'
p911
tp912
Rp913
s(I90
I12
tp914
g4
(g8
S'\x01\x00\x00\x00\x00\x00\x00\x00'
p915
tp916
Rp917
s(I84
I0
tp918
g4
(g8
S'\x01\x00\x00\x00\x00\x00\x00\x00'
p919
tp920
Rp921
s(I70
I10
tp922
g4
(g8
S'\x01\x00\x00\x00\x00\x00\x00\x00'
p923
tp924
Rp925
s(I46
I16
tp926
g4
(g8
S'\x01\x00\x00\x00\x00\x00\x00\x00'
p927
tp928
Rp929
s(I20
I3
tp930
g4
(g8
S'\x01\x00\x00\x00\x00\x00\x00\x00'
p931
tp932
Rp933
s(I44
I0
tp934
g4
(g8
S'\x00\x00\x00\x00\x00\x00\x00\x00'
p935
tp936
Rp937
s(I68
I5
tp938
g4
(g8
S'\x01\x00\x00\x00\x00\x00\x00\x00'
p939
tp940
Rp941
s(I42
I16
tp942
g4
(g8
S'\x01\x00\x00\x00\x00\x00\x00\x00'
p943
tp944
Rp945
s(I32
I6
tp946
g4
(g8
S'\x00\x00\x00\x00\x00\x00\x00\x00'
p947
tp948
Rp949
s(I56
I3
tp950
g4
(g8
S'\x01\x00\x00\x00\x00\x00\x00\x00'
p951
tp952
Rp953
s(I80
I0
tp954
g4
(g8
S'\x01\x00\x00\x00\x00\x00\x00\x00'
p955
tp956
Rp957
s(I94
I6
tp958
g4
(g8
S'\x01\x00\x00\x00\x00\x00\x00\x00'
p959
tp960
Rp961
s(I94
I16
tp962
g4
(g8
S'\x01\x00\x00\x00\x00\x00\x00\x00'
p963
tp964
Rp965
s(I10
I3
tp966
g4
(g8
S'\x01\x00\x00\x00\x00\x00\x00\x00'
p967
tp968
Rp969
s(I34
I4
tp970
g4
(g8
S'\x01\x00\x00\x00\x00\x00\x00\x00'
p971
tp972
Rp973
s(I82
I10
tp974
g4
(g8
S'\x01\x00\x00\x00\x00\x00\x00\x00'
p975
tp976
Rp977
s(I14
I5
tp978
g4
(g8
S'\x00\x00\x00\x00\x00\x00\x00\x00'
p979
tp980
Rp981
s(I38
I6
tp982
g4
(g8
S'\x01\x00\x00\x00\x00\x00\x00\x00'
p983
tp984
Rp985
s(I12
I13
tp986
g4
(g8
S'\x01\x00\x00\x00\x00\x00\x00\x00'
p987
tp988
Rp989
s(I86
I12
tp990
g4
(g8
S'\x01\x00\x00\x00\x00\x00\x00\x00'
p991
tp992
Rp993
s(I88
I4
tp994
g4
(g8
S'\x01\x00\x00\x00\x00\x00\x00\x00'
p995
tp996
Rp997
s(I74
I14
tp998
g4
(g8
S'\x01\x00\x00\x00\x00\x00\x00\x00'
p999
tp1000
Rp1001
s(I98
I3
tp1002
g4
(g8
S'\x01\x00\x00\x00\x00\x00\x00\x00'
p1003
tp1004
Rp1005
s(I84
I9
tp1006
g4
(g8
S'\x01\x00\x00\x00\x00\x00\x00\x00'
p1007
tp1008
Rp1009
s(I78
I8
tp1010
g4
(g8
S'\x01\x00\x00\x00\x00\x00\x00\x00'
p1011
tp1012
Rp1013
s(I76
I8
tp1014
g4
(g8
S'\x01\x00\x00\x00\x00\x00\x00\x00'
p1015
tp1016
Rp1017
s(I40
I1
tp1018
g4
(g8
S'\x01\x00\x00\x00\x00\x00\x00\x00'
p1019
tp1020
Rp1021
s(I64
I14
tp1022
g4
(g8
S'\x01\x00\x00\x00\x00\x00\x00\x00'
p1023
tp1024
Rp1025
s(I20
I10
tp1026
g4
(g8
S'\x01\x00\x00\x00\x00\x00\x00\x00'
p1027
tp1028
Rp1029
s(I18
I6
tp1030
g4
(g8
S'\x01\x00\x00\x00\x00\x00\x00\x00'
p1031
tp1032
Rp1033
s(I66
I12
tp1034
g4
(g8
S'\x01\x00\x00\x00\x00\x00\x00\x00'
p1035
tp1036
Rp1037
s(I94
I15
tp1038
g4
(g8
S'\x01\x00\x00\x00\x00\x00\x00\x00'
p1039
tp1040
Rp1041
s(I22
I0
tp1042
g4
(g8
S'\x01\x00\x00\x00\x00\x00\x00\x00'
p1043
tp1044
Rp1045
s(I80
I7
tp1046
g4
(g8
S'\x01\x00\x00\x00\x00\x00\x00\x00'
p1047
tp1048
Rp1049
s(I70
I14
tp1050
g4
(g8
S'\x01\x00\x00\x00\x00\x00\x00\x00'
p1051
tp1052
Rp1053
s(I56
I13
tp1054
g4
(g8
S'\x01\x00\x00\x00\x00\x00\x00\x00'
p1055
tp1056
Rp1057
s(I60
I16
tp1058
g4
(g8
S'\x01\x00\x00\x00\x00\x00\x00\x00'
p1059
tp1060
Rp1061
s(I58
I0
tp1062
g4
(g8
S'\x01\x00\x00\x00\x00\x00\x00\x00'
p1063
tp1064
Rp1065
s(I82
I5
tp1066
g4
(g8
S'\x01\x00\x00\x00\x00\x00\x00\x00'
p1067
tp1068
Rp1069
s(I62
I10
tp1070
g4
(g8
S'\x02\x00\x00\x00\x00\x00\x00\x00'
p1071
tp1072
Rp1073
s(I86
I7
tp1074
g4
(g8
S'\x02\x00\x00\x00\x00\x00\x00\x00'
p1075
tp1076
Rp1077
s(I60
I14
tp1078
g4
(g8
S'\x01\x00\x00\x00\x00\x00\x00\x00'
p1079
tp1080
Rp1081
s(I88
I13
tp1082
g4
(g8
S'\x01\x00\x00\x00\x00\x00\x00\x00'
p1083
tp1084
Rp1085
s(I74
I9
tp1086
g4
(g8
S'\x01\x00\x00\x00\x00\x00\x00\x00'
p1087
tp1088
Rp1089
s(I48
I12
tp1090
g4
(g8
S'\x02\x00\x00\x00\x00\x00\x00\x00'
p1091
tp1092
Rp1093
s(I94
I2
tp1094
g4
(g8
S'\x02\x00\x00\x00\x00\x00\x00\x00'
p1095
tp1096
Rp1097
s(I52
I2
tp1098
g4
(g8
S'\x01\x00\x00\x00\x00\x00\x00\x00'
p1099
tp1100
Rp1101
s(I76
I7
tp1102
g4
(g8
S'\x01\x00\x00\x00\x00\x00\x00\x00'
p1103
tp1104
Rp1105
s(I50
I14
tp1106
g4
(g8
S'\x01\x00\x00\x00\x00\x00\x00\x00'
p1107
tp1108
Rp1109
s(I40
I8
tp1110
g4
(g8
S'\x01\x00\x00\x00\x00\x00\x00\x00'
p1111
tp1112
Rp1113
s(I64
I5
tp1114
g4
(g8
S'\x01\x00\x00\x00\x00\x00\x00\x00'
p1115
tp1116
Rp1117
s(I54
I8
tp1118
g4
(g8
S'\x01\x00\x00\x00\x00\x00\x00\x00'
p1119
tp1120
Rp1121
s(I90
I16
tp1122
g4
(g8
S'\x01\x00\x00\x00\x00\x00\x00\x00'
p1123
tp1124
Rp1125
s(I22
I14
tp1126
g4
(g8
S'\x02\x00\x00\x00\x00\x00\x00\x00'
p1127
tp1128
Rp1129
s(I68
I11
tp1130
g4
(g8
S'\x02\x00\x00\x00\x00\x00\x00\x00'
p1131
tp1132
Rp1133
s(I42
I2
tp1134
g4
(g8
S'\x01\x00\x00\x00\x00\x00\x00\x00'
p1135
tp1136
Rp1137
s(I66
I7
tp1138
g4
(g8
S'\x01\x00\x00\x00\x00\x00\x00\x00'
p1139
tp1140
Rp1141
s(I88
I0
tp1142
g4
(g8
S'\x01\x00\x00\x00\x00\x00\x00\x00'
p1143
tp1144
Rp1145
s(I56
I17
tp1146
g4
(g8
S'\x01\x00\x00\x00\x00\x00\x00\x00'
p1147
tp1148
Rp1149
s(I46
I4
tp1150
g4
(g8
S'\x00\x00\x00\x00\x00\x00\x00\x00'
p1151
tp1152
Rp1153
s(I70
I1
tp1154
g4
(g8
S'\x01\x00\x00\x00\x00\x00\x00\x00'
p1155
tp1156
Rp1157
s(I44
I12
tp1158
g4
(g8
S'\x01\x00\x00\x00\x00\x00\x00\x00'
p1159
tp1160
Rp1161
s(I68
I17
tp1162
g4
(g8
S'\x01\x00\x00\x00\x00\x00\x00\x00'
p1163
tp1164
Rp1165
s(I58
I11
tp1166
g4
(g8
S'\x00\x00\x00\x00\x00\x00\x00\x00'
p1167
tp1168
Rp1169
s(I32
I10
tp1170
g4
(g8
S'\x01\x00\x00\x00\x00\x00\x00\x00'
p1171
tp1172
Rp1173
s(I84
I13
tp1174
g4
(g8
S'\x01\x00\x00\x00\x00\x00\x00\x00'
p1175
tp1176
Rp1177
s(I12
I3
tp1178
g4
(g8
S'\x02\x00\x00\x00\x00\x00\x00\x00'
p1179
tp1180
Rp1181
s(I36
I0
tp1182
g4
(g8
S'\x01\x00\x00\x00\x00\x00\x00\x00'
p1183
tp1184
Rp1185
s(I60
I5
tp1186
g4
(g8
S'\x01\x00\x00\x00\x00\x00\x00\x00'
p1187
tp1188
Rp1189
s(I24
I6
tp1190
g4
(g8
S'\x02\x00\x00\x00\x00\x00\x00\x00'
p1191
tp1192
Rp1193
s(I48
I3
tp1194
g4
(g8
S'\x00\x00\x00\x00\x00\x00\x00\x00'
p1195
tp1196
Rp1197
s(I38
I10
tp1198
g4
(g8
S'\x01\x00\x00\x00\x00\x00\x00\x00'
p1199
tp1200
Rp1201
s(I96
I13
tp1202
g4
(g8
S'\x02\x00\x00\x00\x00\x00\x00\x00'
p1203
tp1204
Rp1205
s(I52
I9
tp1206
g4
(g8
S'\x01\x00\x00\x00\x00\x00\x00\x00'
p1207
tp1208
Rp1209
s(I26
I4
tp1210
g4
(g8
S'\x01\x00\x00\x00\x00\x00\x00\x00'
p1211
tp1212
Rp1213
s(I50
I9
tp1214
g4
(g8
S'\x01\x00\x00\x00\x00\x00\x00\x00'
p1215
tp1216
Rp1217
s(I98
I15
tp1218
g4
(g8
S'\x01\x00\x00\x00\x00\x00\x00\x00'
p1219
tp1220
Rp1221
s(I84
I15
tp1222
g4
(g8
S'\x01\x00\x00\x00\x00\x00\x00\x00'
p1223
tp1224
Rp1225
s(I40
I15
tp1226
g4
(g8
S'\x01\x00\x00\x00\x00\x00\x00\x00'
p1227
tp1228
Rp1229
s(I30
I6
tp1230
g4
(g8
S'\x01\x00\x00\x00\x00\x00\x00\x00'
p1231
tp1232
Rp1233
s(I54
I3
tp1234
g4
(g8
S'\x01\x00\x00\x00\x00\x00\x00\x00'
p1235
tp1236
Rp1237
s(I88
I9
tp1238
g4
(g8
S'\x01\x00\x00\x00\x00\x00\x00\x00'
p1239
tp1240
Rp1241
s(I42
I13
tp1242
g4
(g8
S'\x01\x00\x00\x00\x00\x00\x00\x00'
p1243
tp1244
Rp1245
s(I90
I3
tp1246
g4
(g8
S'\x01\x00\x00\x00\x00\x00\x00\x00'
p1247
tp1248
Rp1249
s(I46
I15
tp1250
g4
(g8
S'\x01\x00\x00\x00\x00\x00\x00\x00'
p1251
tp1252
Rp1253
s(I20
I6
tp1254
g4
(g8
S'\x01\x00\x00\x00\x00\x00\x00\x00'
p1255
tp1256
Rp1257
s(I44
I11
tp1258
g4
(g8
S'\x02\x00\x00\x00\x00\x00\x00\x00'
p1259
tp1260
Rp1261
s(I92
I13
tp1262
g4
(g8
S'\x01\x00\x00\x00\x00\x00\x00\x00'
p1263
tp1264
Rp1265
s(I78
I15
tp1266
g4
(g8
S'\x01\x00\x00\x00\x00\x00\x00\x00'
p1267
tp1268
Rp1269
s(I94
I9
tp1270
g4
(g8
S'\x01\x00\x00\x00\x00\x00\x00\x00'
p1271
tp1272
Rp1273
s(I32
I1
tp1274
g4
(g8
S'\x01\x00\x00\x00\x00\x00\x00\x00'
p1275
tp1276
Rp1277
s(I80
I11
tp1278
g4
(g8
S'\x01\x00\x00\x00\x00\x00\x00\x00'
p1279
tp1280
Rp1281
s(I36
I15
tp1282
g4
(g8
S'\x01\x00\x00\x00\x00\x00\x00\x00'
p1283
tp1284
Rp1285
s(I34
I11
tp1286
g4
(g8
S'\x01\x00\x00\x00\x00\x00\x00\x00'
p1287
tp1288
Rp1289
s(I82
I17
tp1290
g4
(g8
S'\x01\x00\x00\x00\x00\x00\x00\x00'
p1291
tp1292
Rp1293
s(I24
I13
tp1294
g4
(g8
S'\x01\x00\x00\x00\x00\x00\x00\x00'
p1295
tp1296
Rp1297
s(I14
I0
tp1298
g4
(g8
S'\x01\x00\x00\x00\x00\x00\x00\x00'
p1299
tp1300
Rp1301
s(I38
I13
tp1302
g4
(g8
S'\x01\x00\x00\x00\x00\x00\x00\x00'
p1303
tp1304
Rp1305
s(I96
I4
tp1306
g4
(g8
S'\x01\x00\x00\x00\x00\x00\x00\x00'
p1307
tp1308
Rp1309
s(I86
I11
tp1310
g4
(g8
S'\x01\x00\x00\x00\x00\x00\x00\x00'
p1311
tp1312
Rp1313
s(I72
I13
tp1314
g4
(g8
S'\x02\x00\x00\x00\x00\x00\x00\x00'
p1315
tp1316
Rp1317
s(I88
I11
tp1318
g4
(g8
S'\x01\x00\x00\x00\x00\x00\x00\x00'
p1319
tp1320
Rp1321
s(I52
I16
tp1322
g4
(g8
S'\x01\x00\x00\x00\x00\x00\x00\x00'
p1323
tp1324
Rp1325
s(I26
I15
tp1326
g4
(g8
S'\x00\x00\x00\x00\x00\x00\x00\x00'
p1327
tp1328
Rp1329
s(I50
I0
tp1330
g4
(g8
S'\x01\x00\x00\x00\x00\x00\x00\x00'
p1331
tp1332
Rp1333
s(I74
I5
tp1334
g4
(g8
S'\x01\x00\x00\x00\x00\x00\x00\x00'
p1335
tp1336
Rp1337
s(I48
I16
tp1338
g4
(g8
S'\x01\x00\x00\x00\x00\x00\x00\x00'
p1339
tp1340
Rp1341
s(I96
I10
tp1342
g4
(g8
S'\x01\x00\x00\x00\x00\x00\x00\x00'
p1343
tp1344
Rp1345
s(I30
I9
tp1346
g4
(g8
S'\x01\x00\x00\x00\x00\x00\x00\x00'
p1347
tp1348
Rp1349
s(I88
I16
tp1350
g4
(g8
S'\x01\x00\x00\x00\x00\x00\x00\x00'
p1351
tp1352
Rp1353
s(I78
I7
tp1354
g4
(g8
S'\x01\x00\x00\x00\x00\x00\x00\x00'
p1355
tp1356
Rp1357
s(I100
I16
tp1358
g4
(g8
S'\x01\x00\x00\x00\x00\x00\x00\x00'
p1359
tp1360
Rp1361
s(I66
I17
tp1362
g4
(g8
S'\x01\x00\x00\x00\x00\x00\x00\x00'
p1363
tp1364
Rp1365
s(I90
I10
tp1366
g4
(g8
S'\x01\x00\x00\x00\x00\x00\x00\x00'
p1367
tp1368
Rp1369
s(I64
I9
tp1370
g4
(g8
S'\x01\x00\x00\x00\x00\x00\x00\x00'
p1371
tp1372
Rp1373
s(I44
I2
tp1374
g4
(g8
S'\x01\x00\x00\x00\x00\x00\x00\x00'
p1375
tp1376
Rp1377
s(I18
I13
tp1378
g4
(g8
S'\x02\x00\x00\x00\x00\x00\x00\x00'
p1379
tp1380
Rp1381
s(I72
I0
tp1382
g4
(g8
S'\x01\x00\x00\x00\x00\x00\x00\x00'
p1383
tp1384
Rp1385
s(I56
I5
tp1386
g4
(g8
S'\x00\x00\x00\x00\x00\x00\x00\x00'
p1387
tp1388
Rp1389
s(I80
I2
tp1390
g4
(g8
S'\x01\x00\x00\x00\x00\x00\x00\x00'
p1391
tp1392
Rp1393
s(I76
I0
tp1394
g4
(g8
S'\x01\x00\x00\x00\x00\x00\x00\x00'
p1395
tp1396
Rp1397
s(I34
I2
tp1398
g4
(g8
S'\x02\x00\x00\x00\x00\x00\x00\x00'
p1399
tp1400
Rp1401
s(I58
I7
tp1402
g4
(g8
S'\x00\x00\x00\x00\x00\x00\x00\x00'
p1403
tp1404
Rp1405
s(I82
I8
tp1406
g4
(g8
S'\x01\x00\x00\x00\x00\x00\x00\x00'
p1407
tp1408
Rp1409
s(I14
I11
tp1410
g4
(g8
S'\x02\x00\x00\x00\x00\x00\x00\x00'
p1411
tp1412
Rp1413
s(I38
I4
tp1414
g4
(g8
S'\x01\x00\x00\x00\x00\x00\x00\x00'
p1415
tp1416
Rp1417
s(I62
I1
tp1418
g4
(g8
S'\x00\x00\x00\x00\x00\x00\x00\x00'
p1419
tp1420
Rp1421
s(I86
I2
tp1422
g4
(g8
S'\x01\x00\x00\x00\x00\x00\x00\x00'
p1423
tp1424
Rp1425
s(I74
I12
tp1426
g4
(g8
S'\x01\x00\x00\x00\x00\x00\x00\x00'
p1427
tp1428
Rp1429
s(I28
I0
tp1430
g4
(g8
S'\x01\x00\x00\x00\x00\x00\x00\x00'
p1431
tp1432
Rp1433
s(I52
I5
tp1434
g4
(g8
S'\x01\x00\x00\x00\x00\x00\x00\x00'
p1435
tp1436
Rp1437
s(I76
I10
tp1438
g4
(g8
S'\x01\x00\x00\x00\x00\x00\x00\x00'
p1439
tp1440
Rp1441
s(I66
I16
tp1442
g4
(g8
S'\x01\x00\x00\x00\x00\x00\x00\x00'
p1443
tp1444
Rp1445
s(I40
I3
tp1446
g4
(g8
S'\x01\x00\x00\x00\x00\x00\x00\x00'
p1447
tp1448
Rp1449
s(I64
I0
tp1450
g4
(g8
S'\x01\x00\x00\x00\x00\x00\x00\x00'
p1451
tp1452
Rp1453
s(I100
I3
tp1454
g4
(g8
S'\x01\x00\x00\x00\x00\x00\x00\x00'
p1455
tp1456
Rp1457
s(I98
I7
tp1458
g4
(g8
S'\x01\x00\x00\x00\x00\x00\x00\x00'
p1459
tp1460
Rp1461
s(I18
I4
tp1462
g4
(g8
S'\x01\x00\x00\x00\x00\x00\x00\x00'
p1463
tp1464
Rp1465
s(I92
I3
tp1466
g4
(g8
S'\x01\x00\x00\x00\x00\x00\x00\x00'
p1467
tp1468
Rp1469
s(I66
I10
tp1470
g4
(g8
S'\x01\x00\x00\x00\x00\x00\x00\x00'
p1471
tp1472
Rp1473
s(I56
I12
tp1474
g4
(g8
S'\x02\x00\x00\x00\x00\x00\x00\x00'
p1475
tp1476
Rp1477
s(I46
I3
tp1478
g4
(g8
S'\x02\x00\x00\x00\x00\x00\x00\x00'
p1479
tp1480
Rp1481
s(I70
I12
tp1482
g4
(g8
S'\x01\x00\x00\x00\x00\x00\x00\x00'
p1483
tp1484
Rp1485
s(I78
I9
tp1486
g4
(g8
S'\x01\x00\x00\x00\x00\x00\x00\x00'
p1487
tp1488
Rp1489
s(I10
I8
tp1490
g4
(g8
S'\x00\x00\x00\x00\x00\x00\x00\x00'
p1491
tp1492
Rp1493
s(I58
I14
tp1494
g4
(g8
S'\x01\x00\x00\x00\x00\x00\x00\x00'
p1495
tp1496
Rp1497
s(I82
I3
tp1498
g4
(g8
S'\x02\x00\x00\x00\x00\x00\x00\x00'
p1499
tp1500
Rp1501
s(I12
I6
tp1502
g4
(g8
S'\x00\x00\x00\x00\x00\x00\x00\x00'
p1503
tp1504
Rp1505
s(I86
I5
tp1506
g4
(g8
S'\x00\x00\x00\x00\x00\x00\x00\x00'
p1507
tp1508
Rp1509
s(I60
I8
tp1510
g4
(g8
S'\x01\x00\x00\x00\x00\x00\x00\x00'
p1511
tp1512
Rp1513
s(I24
I1
tp1514
g4
(g8
S'\x01\x00\x00\x00\x00\x00\x00\x00'
p1515
tp1516
Rp1517
s(I48
I14
tp1518
g4
(g8
S'\x01\x00\x00\x00\x00\x00\x00\x00'
p1519
tp1520
Rp1521
s(I96
I8
tp1522
g4
(g8
S'\x01\x00\x00\x00\x00\x00\x00\x00'
p1523
tp1524
Rp1525
s(I72
I11
tp1526
g4
(g8
S'\x01\x00\x00\x00\x00\x00\x00\x00'
p1527
tp1528
Rp1529
s(I4
I10
tp1530
g4
(g8
S'\x00\x00\x00\x00\x00\x00\x00\x00'
p1531
tp1532
Rp1533
s(I78
I17
tp1534
g4
(g8
S'\x01\x00\x00\x00\x00\x00\x00\x00'
p1535
tp1536
Rp1537
s(I52
I12
tp1538
g4
(g8
S'\x01\x00\x00\x00\x00\x00\x00\x00'
p1539
tp1540
Rp1541
s(I76
I1
tp1542
g4
(g8
S'\x01\x00\x00\x00\x00\x00\x00\x00'
p1543
tp1544
Rp1545
s(I50
I12
tp1546
g4
(g8
S'\x01\x00\x00\x00\x00\x00\x00\x00'
p1547
tp1548
Rp1549
s(I74
I17
tp1550
g4
(g8
S'\x01\x00\x00\x00\x00\x00\x00\x00'
p1551
tp1552
Rp1553
s(I62
I3
tp1554
g4
(g8
S'\x01\x00\x00\x00\x00\x00\x00\x00'
p1555
tp1556
Rp1557
s(I6
I0
tp1558
g4
(g8
S'\x01\x00\x00\x00\x00\x00\x00\x00'
p1559
tp1560
Rp1561
s(I64
I7
tp1562
g4
(g8
S'\x01\x00\x00\x00\x00\x00\x00\x00'
p1563
tp1564
Rp1565
s(I54
I14
tp1566
g4
(g8
S'\x01\x00\x00\x00\x00\x00\x00\x00'
p1567
tp1568
Rp1569
s(I42
I0
tp1570
g4
(g8
S'\x01\x00\x00\x00\x00\x00\x00\x00'
p1571
tp1572
Rp1573
s(I66
I5
tp1574
g4
(g8
S'\x01\x00\x00\x00\x00\x00\x00\x00'
p1575
tp1576
Rp1577
s(I40
I16
tp1578
g4
(g8
S'\x01\x00\x00\x00\x00\x00\x00\x00'
p1579
tp1580
Rp1581
s(I46
I10
tp1582
g4
(g8
S'\x01\x00\x00\x00\x00\x00\x00\x00'
p1583
tp1584
Rp1585
s(I70
I7
tp1586
g4
(g8
S'\x00\x00\x00\x00\x00\x00\x00\x00'
p1587
tp1588
Rp1589
s(I44
I14
tp1590
g4
(g8
S'\x01\x00\x00\x00\x00\x00\x00\x00'
p1591
tp1592
Rp1593
s(I98
I6
tp1594
g4
(g8
S'\x02\x00\x00\x00\x00\x00\x00\x00'
p1595
tp1596
Rp1597
s(I96
I11
tp1598
g4
(g8
S'\x01\x00\x00\x00\x00\x00\x00\x00'
p1599
tp1600
Rp1601
s(I58
I9
tp1602
g4
(g8
S'\x02\x00\x00\x00\x00\x00\x00\x00'
p1603
tp1604
Rp1605
s(I32
I12
tp1606
g4
(g8
S'\x01\x00\x00\x00\x00\x00\x00\x00'
p1607
tp1608
Rp1609
s(I92
I18
tp1610
g4
(g8
S'\x01\x00\x00\x00\x00\x00\x00\x00'
p1611
tp1612
Rp1613
s(I36
I2
tp1614
g4
(g8
S'\x01\x00\x00\x00\x00\x00\x00\x00'
p1615
tp1616
Rp1617
s(I60
I7
tp1618
g4
(g8
S'\x01\x00\x00\x00\x00\x00\x00\x00'
p1619
tp1620
Rp1621
s(I34
I14
tp1622
g4
(g8
S'\x00\x00\x00\x00\x00\x00\x00\x00'
p1623
tp1624
Rp1625
s(I24
I8
tp1626
g4
(g8
S'\x01\x00\x00\x00\x00\x00\x00\x00'
p1627
tp1628
Rp1629
s(I48
I5
tp1630
g4
(g8
S'\x02\x00\x00\x00\x00\x00\x00\x00'
p1631
tp1632
Rp1633
s(I38
I8
tp1634
g4
(g8
S'\x01\x00\x00\x00\x00\x00\x00\x00'
p1635
tp1636
Rp1637
s(I96
I15
tp1638
g4
(g8
S'\x01\x00\x00\x00\x00\x00\x00\x00'
p1639
tp1640
Rp1641
s(I52
I11
tp1642
g4
(g8
S'\x01\x00\x00\x00\x00\x00\x00\x00'
p1643
tp1644
Rp1645
s(I50
I7
tp1646
g4
(g8
S'\x01\x00\x00\x00\x00\x00\x00\x00'
p1647
tp1648
Rp1649
s(I98
I13
tp1650
g4
(g8
S'\x01\x00\x00\x00\x00\x00\x00\x00'
p1651
tp1652
Rp1653
s(I54
I1
tp1654
g4
(g8
S'\x01\x00\x00\x00\x00\x00\x00\x00'
p1655
tp1656
Rp1657
s(I28
I12
tp1658
g4
(g8
S'\x01\x00\x00\x00\x00\x00\x00\x00'
p1659
tp1660
Rp1661
s(I42
I11
tp1662
g4
(g8
S'\x01\x00\x00\x00\x00\x00\x00\x00'
p1663
tp1664
Rp1665
s(I16
I10
tp1666
g4
(g8
S'\x01\x00\x00\x00\x00\x00\x00\x00'
p1667
tp1668
Rp1669
s(I92
I2
tp1670
g4
(g8
S'\x00\x00\x00\x00\x00\x00\x00\x00'
p1671
tp1672
Rp1673
s(I46
I13
tp1674
g4
(g8
S'\x01\x00\x00\x00\x00\x00\x00\x00'
p1675
tp1676
Rp1677
s(I20
I0
tp1678
g4
(g8
S'\x01\x00\x00\x00\x00\x00\x00\x00'
p1679
tp1680
Rp1681
s(I44
I5
tp1682
g4
(g8
S'\x00\x00\x00\x00\x00\x00\x00\x00'
p1683
tp1684
Rp1685
s(I92
I15
tp1686
g4
(g8
S'\x01\x00\x00\x00\x00\x00\x00\x00'
p1687
tp1688
Rp1689
s(I58
I16
tp1690
g4
(g8
S'\x01\x00\x00\x00\x00\x00\x00\x00'
p1691
tp1692
Rp1693
s(I32
I3
tp1694
g4
(g8
S'\x01\x00\x00\x00\x00\x00\x00\x00'
p1695
tp1696
Rp1697
s(I22
I10
tp1698
g4
(g8
S'\x01\x00\x00\x00\x00\x00\x00\x00'
p1699
tp1700
Rp1701
s(I80
I13
tp1702
g4
(g8
S'\x01\x00\x00\x00\x00\x00\x00\x00'
p1703
tp1704
Rp1705
s(I70
I16
tp1706
g4
(g8
S'\x01\x00\x00\x00\x00\x00\x00\x00'
p1707
tp1708
Rp1709
s(I78
I11
tp1710
g4
(g8
S'\x01\x00\x00\x00\x00\x00\x00\x00'
p1711
tp1712
Rp1713
s(I94
I5
tp1714
g4
(g8
S'\x02\x00\x00\x00\x00\x00\x00\x00'
p1715
tp1716
Rp1717
s(I34
I9
tp1718
g4
(g8
S'\x01\x00\x00\x00\x00\x00\x00\x00'
p1719
tp1720
Rp1721
s(I82
I15
tp1722
g4
(g8
S'\x01\x00\x00\x00\x00\x00\x00\x00'
p1723
tp1724
Rp1725
s(I24
I15
tp1726
g4
(g8
S'\x01\x00\x00\x00\x00\x00\x00\x00'
p1727
tp1728
Rp1729
s(I38
I3
tp1730
g4
(g8
S'\x01\x00\x00\x00\x00\x00\x00\x00'
p1731
tp1732
Rp1733
s(I96
I6
tp1734
g4
(g8
S'\x01\x00\x00\x00\x00\x00\x00\x00'
p1735
tp1736
Rp1737
s(I86
I9
tp1738
g4
(g8
S'\x01\x00\x00\x00\x00\x00\x00\x00'
p1739
tp1740
Rp1741
s(I26
I13
tp1742
g4
(g8
S'\x01\x00\x00\x00\x00\x00\x00\x00'
p1743
tp1744
Rp1745
s(I74
I3
tp1746
g4
(g8
S'\x01\x00\x00\x00\x00\x00\x00\x00'
p1747
tp1748
Rp1749
s(I22
I1
tp1750
g4
(g8
S'\x01\x00\x00\x00\x00\x00\x00\x00'
p1751
tp1752
Rp1753
s(I72
I9
tp1754
g4
(g8
S'\x00\x00\x00\x00\x00\x00\x00\x00'
p1755
tp1756
Rp1757
s(I88
I7
tp1758
g4
(g8
S'\x01\x00\x00\x00\x00\x00\x00\x00'
p1759
tp1760
Rp1761
s(I28
I11
tp1762
g4
(g8
S'\x00\x00\x00\x00\x00\x00\x00\x00'
p1763
tp1764
Rp1765
s(I76
I13
tp1766
g4
(g8
S'\x01\x00\x00\x00\x00\x00\x00\x00'
p1767
tp1768
Rp1769
s(I100
I18
tp1770
g4
(g8
S'\x01\x00\x00\x00\x00\x00\x00\x00'
p1771
tp1772
Rp1773
s(I96
I18
tp1774
g4
(g8
S'\x01\x00\x00\x00\x00\x00\x00\x00'
p1775
tp1776
Rp1777
s(I84
I4
tp1778
g4
(g8
S'\x01\x00\x00\x00\x00\x00\x00\x00'
p1779
tp1780
Rp1781
s(I90
I8
tp1782
g4
(g8
S'\x01\x00\x00\x00\x00\x00\x00\x00'
p1783
tp1784
Rp1785
s(I64
I11
tp1786
g4
(g8
S'\x01\x00\x00\x00\x00\x00\x00\x00'
p1787
tp1788
Rp1789
s(I18
I11
tp1790
g4
(g8
S'\x01\x00\x00\x00\x00\x00\x00\x00'
p1791
tp1792
Rp1793
s(I92
I6
tp1794
g4
(g8
S'\x01\x00\x00\x00\x00\x00\x00\x00'
p1795
tp1796
Rp1797
s(I56
I7
tp1798
g4
(g8
S'\x01\x00\x00\x00\x00\x00\x00\x00'
p1799
tp1800
Rp1801
s(I80
I4
tp1802
g4
(g8
S'\x02\x00\x00\x00\x00\x00\x00\x00'
p1803
tp1804
Rp1805
s(I70
I11
tp1806
g4
(g8
S'\x01\x00\x00\x00\x00\x00\x00\x00'
p1807
tp1808
Rp1809
s(I34
I0
tp1810
g4
(g8
S'\x01\x00\x00\x00\x00\x00\x00\x00'
p1811
tp1812
Rp1813
s(I58
I5
tp1814
g4
(g8
S'\x01\x00\x00\x00\x00\x00\x00\x00'
p1815
tp1816
Rp1817
s(I82
I6
tp1818
g4
(g8
S'\x01\x00\x00\x00\x00\x00\x00\x00'
p1819
tp1820
Rp1821
s(I62
I7
tp1822
g4
(g8
S'\x01\x00\x00\x00\x00\x00\x00\x00'
p1823
tp1824
Rp1825
s(I74
I10
tp1826
g4
(g8
S'\x01\x00\x00\x00\x00\x00\x00\x00'
p1827
tp1828
Rp1829
s(I48
I9
tp1830
g4
(g8
S'\x01\x00\x00\x00\x00\x00\x00\x00'
p1831
tp1832
Rp1833
s(I64
I16
tp1834
g4
(g8
S'\x01\x00\x00\x00\x00\x00\x00\x00'
p1835
tp1836
Rp1837
s(I98
I4
tp1838
g4
(g8
S'\x01\x00\x00\x00\x00\x00\x00\x00'
p1839
tp1840
Rp1841
s(I28
I2
tp1842
g4
(g8
S'\x02\x00\x00\x00\x00\x00\x00\x00'
p1843
tp1844
Rp1845
s(I52
I7
tp1846
g4
(g8
S'\x01\x00\x00\x00\x00\x00\x00\x00'
p1847
tp1848
Rp1849
s(I76
I4
tp1850
g4
(g8
S'\x01\x00\x00\x00\x00\x00\x00\x00'
p1851
tp1852
Rp1853
s(I40
I5
tp1854
g4
(g8
S'\x02\x00\x00\x00\x00\x00\x00\x00'
p1855
tp1856
Rp1857
s(I64
I2
tp1858
g4
(g8
S'\x02\x00\x00\x00\x00\x00\x00\x00'
p1859
tp1860
Rp1861
s(I78
I6
tp1862
g4
(g8
S'\x01\x00\x00\x00\x00\x00\x00\x00'
p1863
tp1864
Rp1865
s(I18
I2
tp1866
g4
(g8
S'\x02\x00\x00\x00\x00\x00\x00\x00'
p1867
tp1868
Rp1869
s(I42
I7
tp1870
g4
(g8
S'\x01\x00\x00\x00\x00\x00\x00\x00'
p1871
tp1872
Rp1873
s(I66
I8
tp1874
g4
(g8
S'\x01\x00\x00\x00\x00\x00\x00\x00'
p1875
tp1876
Rp1877
s(I72
I15
tp1878
g4
(g8
S'\x01\x00\x00\x00\x00\x00\x00\x00'
p1879
tp1880
Rp1881
s(I56
I14
tp1882
g4
(g8
S'\x01\x00\x00\x00\x00\x00\x00\x00'
p1883
tp1884
Rp1885
s(I46
I1
tp1886
g4
(g8
S'\x01\x00\x00\x00\x00\x00\x00\x00'
p1887
tp1888
Rp1889
s(I70
I2
tp1890
g4
(g8
S'\x01\x00\x00\x00\x00\x00\x00\x00'
p1891
tp1892
Rp1893
s(I84
I17
tp1894
g4
(g8
S'\x01\x00\x00\x00\x00\x00\x00\x00'
p1895
tp1896
Rp1897
s(I58
I12
tp1898
g4
(g8
S'\x01\x00\x00\x00\x00\x00\x00\x00'
p1899
tp1900
Rp1901
s(I82
I1
tp1902
g4
(g8
S'\x02\x00\x00\x00\x00\x00\x00\x00'
p1903
tp1904
Rp1905
s(I88
I18
tp1906
g4
(g8
S'\x01\x00\x00\x00\x00\x00\x00\x00'
p1907
tp1908
Rp1909
s(I80
I17
tp1910
g4
(g8
S'\x01\x00\x00\x00\x00\x00\x00\x00'
p1911
tp1912
Rp1913
s(I96
I17
tp1914
g4
(g8
S'\x01\x00\x00\x00\x00\x00\x00\x00'
p1915
tp1916
Rp1917
s(I78
I5
tp1918
g4
(g8
S'\x01\x00\x00\x00\x00\x00\x00\x00'
p1919
tp1920
Rp1921
s(I12
I0
tp1922
g4
(g8
S'\x01\x00\x00\x00\x00\x00\x00\x00'
p1923
tp1924
Rp1925
s(I36
I5
tp1926
g4
(g8
S'\x00\x00\x00\x00\x00\x00\x00\x00'
p1927
tp1928
Rp1929
s(I10
I16
tp1930
g4
(g8
S'\x00\x00\x00\x00\x00\x00\x00\x00'
p1931
tp1932
Rp1933
s(I88
I2
tp1934
g4
(g8
S'\x01\x00\x00\x00\x00\x00\x00\x00'
p1935
tp1936
Rp1937
s(I24
I3
tp1938
g4
(g8
S'\x01\x00\x00\x00\x00\x00\x00\x00'
p1939
tp1940
Rp1941
s(I48
I0
tp1942
g4
(g8
S'\x01\x00\x00\x00\x00\x00\x00\x00'
p1943
tp1944
Rp1945
s(I62
I16
tp1946
g4
(g8
S'\x01\x00\x00\x00\x00\x00\x00\x00'
p1947
tp1948
Rp1949
s(I52
I14
tp1950
g4
(g8
S'\x01\x00\x00\x00\x00\x00\x00\x00'
p1951
tp1952
Rp1953
s(I76
I3
tp1954
g4
(g8
S'\x01\x00\x00\x00\x00\x00\x00\x00'
p1955
tp1956
Rp1957
s(I50
I10
tp1958
g4
(g8
S'\x01\x00\x00\x00\x00\x00\x00\x00'
p1959
tp1960
Rp1961
s(I56
I9
tp1962
g4
(g8
S'\x01\x00\x00\x00\x00\x00\x00\x00'
p1963
tp1964
Rp1965
s(I72
I7
tp1966
g4
(g8
S'\x00\x00\x00\x00\x00\x00\x00\x00'
p1967
tp1968
Rp1969
s(I40
I12
tp1970
g4
(g8
S'\x01\x00\x00\x00\x00\x00\x00\x00'
p1971
tp1972
Rp1973
s(I30
I3
tp1974
g4
(g8
S'\x01\x00\x00\x00\x00\x00\x00\x00'
p1975
tp1976
Rp1977
s(I54
I12
tp1978
g4
(g8
S'\x01\x00\x00\x00\x00\x00\x00\x00'
p1979
tp1980
Rp1981
s(I42
I14
tp1982
g4
(g8
S'\x01\x00\x00\x00\x00\x00\x00\x00'
p1983
tp1984
Rp1985
s(I66
I3
tp1986
g4
(g8
S'\x01\x00\x00\x00\x00\x00\x00\x00'
p1987
tp1988
Rp1989
s(I90
I4
tp1990
g4
(g8
S'\x01\x00\x00\x00\x00\x00\x00\x00'
p1991
tp1992
Rp1993
s(I46
I8
tp1994
g4
(g8
S'\x01\x00\x00\x00\x00\x00\x00\x00'
p1995
tp1996
Rp1997
s(I70
I5
tp1998
g4
(g8
S'\x01\x00\x00\x00\x00\x00\x00\x00'
p1999
tp2000
Rp2001
s(I44
I8
tp2002
g4
(g8
S'\x01\x00\x00\x00\x00\x00\x00\x00'
p2003
tp2004
Rp2005
s(I100
I15
tp2006
g4
(g8
S'\x01\x00\x00\x00\x00\x00\x00\x00'
p2007
tp2008
Rp2009
s(I80
I8
tp2010
g4
(g8
S'\x01\x00\x00\x00\x00\x00\x00\x00'
p2011
tp2012
Rp2013
s(I100
I13
tp2014
g4
(g8
S'\x01\x00\x00\x00\x00\x00\x00\x00'
p2015
tp2016
Rp2017
s(I36
I12
tp2018
g4
(g8
S'\x01\x00\x00\x00\x00\x00\x00\x00'
p2019
tp2020
Rp2021
s(I60
I1
tp2022
g4
(g8
S'\x00\x00\x00\x00\x00\x00\x00\x00'
p2023
tp2024
Rp2025
s(I34
I12
tp2026
g4
(g8
S'\x01\x00\x00\x00\x00\x00\x00\x00'
p2027
tp2028
Rp2029
s(I82
I18
tp2030
g4
(g8
S'\x01\x00\x00\x00\x00\x00\x00\x00'
p2031
tp2032
Rp2033
s(I24
I10
tp2034
g4
(g8
S'\x01\x00\x00\x00\x00\x00\x00\x00'
p2035
tp2036
Rp2037
s(I48
I7
tp2038
g4
(g8
S'\x01\x00\x00\x00\x00\x00\x00\x00'
p2039
tp2040
Rp2041
s(I38
I14
tp2042
g4
(g8
S'\x01\x00\x00\x00\x00\x00\x00\x00'
p2043
tp2044
Rp2045
s(I100
I10
tp2046
g4
(g8
S'\x01\x00\x00\x00\x00\x00\x00\x00'
p2047
tp2048
Rp2049
s(I26
I0
tp2050
g4
(g8
S'\x00\x00\x00\x00\x00\x00\x00\x00'
p2051
tp2052
Rp2053
s(I50
I5
tp2054
g4
(g8
S'\x01\x00\x00\x00\x00\x00\x00\x00'
p2055
tp2056
Rp2057
s(I74
I6
tp2058
g4
(g8
S'\x01\x00\x00\x00\x00\x00\x00\x00'
p2059
tp2060
Rp2061
s(I98
I11
tp2062
g4
(g8
S'\x01\x00\x00\x00\x00\x00\x00\x00'
p2063
tp2064
Rp2065
s(I30
I10
tp2066
g4
(g8
S'\x01\x00\x00\x00\x00\x00\x00\x00'
p2067
tp2068
Rp2069
s(I54
I7
tp2070
g4
(g8
S'\x01\x00\x00\x00\x00\x00\x00\x00'
p2071
tp2072
Rp2073
s(I28
I14
tp2074
g4
(g8
S'\x01\x00\x00\x00\x00\x00\x00\x00'
p2075
tp2076
Rp2077
s(I76
I16
tp2078
g4
(g8
S'\x01\x00\x00\x00\x00\x00\x00\x00'
p2079
tp2080
Rp2081
s(I42
I9
tp2082
g4
(g8
S'\x01\x00\x00\x00\x00\x00\x00\x00'
p2083
tp2084
Rp2085
s(I16
I12
tp2086
g4
(g8
S'\x00\x00\x00\x00\x00\x00\x00\x00'
p2087
tp2088
Rp2089
s(I90
I15
tp2090
g4
(g8
S'\x01\x00\x00\x00\x00\x00\x00\x00'
p2091
tp2092
Rp2093
s(I68
I1
tp2094
g4
(g8
S'\x01\x00\x00\x00\x00\x00\x00\x00'
p2095
tp2096
Rp2097
s(I44
I7
tp2098
g4
(g8
S'\x01\x00\x00\x00\x00\x00\x00\x00'
p2099
tp2100
Rp2101
s(I68
I4
tp2102
g4
(g8
S'\x01\x00\x00\x00\x00\x00\x00\x00'
p2103
tp2104
Rp2105
s(I92
I9
tp2106
g4
(g8
S'\x01\x00\x00\x00\x00\x00\x00\x00'
p2107
tp2108
Rp2109
s(I100
I5
tp2110
g4
(g8
S'\x01\x00\x00\x00\x00\x00\x00\x00'
p2111
tp2112
Rp2113
s(I32
I5
tp2114
g4
(g8
S'\x02\x00\x00\x00\x00\x00\x00\x00'
p2115
tp2116
Rp2117
s(I56
I2
tp2118
g4
(g8
S'\x01\x00\x00\x00\x00\x00\x00\x00'
p2119
tp2120
Rp2121
s(I80
I15
tp2122
g4
(g8
S'\x01\x00\x00\x00\x00\x00\x00\x00'
p2123
tp2124
Rp2125
s(I36
I11
tp2126
g4
(g8
S'\x01\x00\x00\x00\x00\x00\x00\x00'
p2127
tp2128
Rp2129
s(I34
I7
tp2130
g4
(g8
S'\x00\x00\x00\x00\x00\x00\x00\x00'
p2131
tp2132
Rp2133
s(I82
I13
tp2134
g4
(g8
S'\x01\x00\x00\x00\x00\x00\x00\x00'
p2135
tp2136
Rp2137
s(I38
I1
tp2138
g4
(g8
S'\x01\x00\x00\x00\x00\x00\x00\x00'
p2139
tp2140
Rp2141
s(I62
I2
tp2142
g4
(g8
S'\x01\x00\x00\x00\x00\x00\x00\x00'
p2143
tp2144
Rp2145
s(I86
I15
tp2146
g4
(g8
S'\x01\x00\x00\x00\x00\x00\x00\x00'
p2147
tp2148
Rp2149
s(I94
I1
tp2150
g4
(g8
S'\x02\x00\x00\x00\x00\x00\x00\x00'
p2151
tp2152
Rp2153
s(I86
I17
tp2154
g4
(g8
S'\x01\x00\x00\x00\x00\x00\x00\x00'
p2155
tp2156
Rp2157
s(I74
I1
tp2158
g4
(g8
S'\x01\x00\x00\x00\x00\x00\x00\x00'
p2159
tp2160
Rp2161
s(I72
I17
tp2162
g4
(g8
S'\x01\x00\x00\x00\x00\x00\x00\x00'
p2163
tp2164
Rp2165
s(I30
I13
tp2166
g4
(g8
S'\x01\x00\x00\x00\x00\x00\x00\x00'
p2167
tp2168
Rp2169
s(I4
I0
tp2170
g4
(g8
S'\x02\x00\x00\x00\x00\x00\x00\x00'
p2171
tp2172
Rp2173
s(I28
I5
tp2174
g4
(g8
S'\x01\x00\x00\x00\x00\x00\x00\x00'
p2175
tp2176
Rp2177
s(I76
I15
tp2178
g4
(g8
S'\x01\x00\x00\x00\x00\x00\x00\x00'
p2179
tp2180
Rp2181
s(I72
I5
tp2182
g4
(g8
S'\x01\x00\x00\x00\x00\x00\x00\x00'
p2183
tp2184
Rp2185
s(I40
I0
tp2186
g4
(g8
S'\x01\x00\x00\x00\x00\x00\x00\x00'
p2187
tp2188
Rp2189
s(I64
I13
tp2190
g4
(g8
S'\x00\x00\x00\x00\x00\x00\x00\x00'
p2191
tp2192
Rp2193
s(I88
I3
tp2194
g4
(g8
S'\x01\x00\x00\x00\x00\x00\x00\x00'
p2195
tp2196
Rp2197
s(I68
I3
tp2198
g4
(g8
S'\x02\x00\x00\x00\x00\x00\x00\x00'
p2199
tp2200
Rp2201
s(I66
I15
tp2202
g4
(g8
S'\x01\x00\x00\x00\x00\x00\x00\x00'
p2203
tp2204
Rp2205
s(I8
I15
tp2206
g4
(g8
S'\x00\x00\x00\x00\x00\x00\x00\x00'
p2207
tp2208
Rp2209
s(I22
I3
tp2210
g4
(g8
S'\x01\x00\x00\x00\x00\x00\x00\x00'
p2211
tp2212
Rp2213
s(I80
I6
tp2214
g4
(g8
S'\x01\x00\x00\x00\x00\x00\x00\x00'
p2215
tp2216
Rp2217
s(I70
I9
tp2218
g4
(g8
S'\x01\x00\x00\x00\x00\x00\x00\x00'
p2219
tp2220
Rp2221
s(I58
I3
tp2222
g4
(g8
S'\x01\x00\x00\x00\x00\x00\x00\x00'
p2223
tp2224
Rp2225
s(I82
I4
tp2226
g4
(g8
S'\x02\x00\x00\x00\x00\x00\x00\x00'
p2227
tp2228
Rp2229
s(I62
I5
tp2230
g4
(g8
S'\x01\x00\x00\x00\x00\x00\x00\x00'
p2231
tp2232
Rp2233
s(I86
I6
tp2234
g4
(g8
S'\x02\x00\x00\x00\x00\x00\x00\x00'
p2235
tp2236
Rp2237
s(I60
I13
tp2238
g4
(g8
S'\x01\x00\x00\x00\x00\x00\x00\x00'
p2239
tp2240
Rp2241
s(I74
I8
tp2242
g4
(g8
S'\x01\x00\x00\x00\x00\x00\x00\x00'
p2243
tp2244
Rp2245
s(I48
I11
tp2246
g4
(g8
S'\x01\x00\x00\x00\x00\x00\x00\x00'
p2247
tp2248
Rp2249
s(I84
I10
tp2250
g4
(g8
S'\x01\x00\x00\x00\x00\x00\x00\x00'
p2251
tp2252
Rp2253
s(I54
I17
tp2254
g4
(g8
S'\x01\x00\x00\x00\x00\x00\x00\x00'
p2255
tp2256
Rp2257
s(I100
I8
tp2258
g4
(g8
S'\x01\x00\x00\x00\x00\x00\x00\x00'
p2259
tp2260
Rp2261
s(I52
I1
tp2262
g4
(g8
S'\x00\x00\x00\x00\x00\x00\x00\x00'
p2263
tp2264
Rp2265
s(I76
I6
tp2266
g4
(g8
S'\x01\x00\x00\x00\x00\x00\x00\x00'
p2267
tp2268
Rp2269
s(I6
I13
tp2270
g4
(g8
S'\x02\x00\x00\x00\x00\x00\x00\x00'
p2271
tp2272
Rp2273
s(I64
I4
tp2274
g4
(g8
S'\x02\x00\x00\x00\x00\x00\x00\x00'
p2275
tp2276
Rp2277
s(I54
I11
tp2278
g4
(g8
S'\x01\x00\x00\x00\x00\x00\x00\x00'
p2279
tp2280
Rp2281
s(I20
I16
tp2282
g4
(g8
S'\x01\x00\x00\x00\x00\x00\x00\x00'
p2283
tp2284
Rp2285
s(I18
I0
tp2286
g4
(g8
S'\x01\x00\x00\x00\x00\x00\x00\x00'
p2287
tp2288
Rp2289
s(I42
I5
tp2290
g4
(g8
S'\x01\x00\x00\x00\x00\x00\x00\x00'
p2291
tp2292
Rp2293
s(I66
I6
tp2294
g4
(g8
S'\x01\x00\x00\x00\x00\x00\x00\x00'
p2295
tp2296
Rp2297
s(I94
I12
tp2298
g4
(g8
S'\x01\x00\x00\x00\x00\x00\x00\x00'
p2299
tp2300
Rp2301
s(I56
I16
tp2302
g4
(g8
S'\x01\x00\x00\x00\x00\x00\x00\x00'
p2303
tp2304
Rp2305
s(I46
I7
tp2306
g4
(g8
S'\x01\x00\x00\x00\x00\x00\x00\x00'
p2307
tp2308
Rp2309
s(I68
I7
tp2310
g4
(g8
S'\x01\x00\x00\x00\x00\x00\x00\x00'
p2311
tp2312
Rp2313
s(I68
I16
tp2314
g4
(g8
S'\x01\x00\x00\x00\x00\x00\x00\x00'
p2315
tp2316
Rp2317
s(I84
I5
tp2318
g4
(g8
S'\x00\x00\x00\x00\x00\x00\x00\x00'
p2319
tp2320
Rp2321
s(I92
I4
tp2322
g4
(g8
S'\x01\x00\x00\x00\x00\x00\x00\x00'
p2323
tp2324
Rp2325
s(I58
I10
tp2326
g4
(g8
S'\x01\x00\x00\x00\x00\x00\x00\x00'
p2327
tp2328
Rp2329
s(I62
I12
tp2330
g4
(g8
S'\x01\x00\x00\x00\x00\x00\x00\x00'
p2331
tp2332
Rp2333
s(I36
I7
tp2334
g4
(g8
S'\x00\x00\x00\x00\x00\x00\x00\x00'
p2335
tp2336
Rp2337
s(I60
I4
tp2338
g4
(g8
S'\x01\x00\x00\x00\x00\x00\x00\x00'
p2339
tp2340
Rp2341
s(I88
I14
tp2342
g4
(g8
S'\x01\x00\x00\x00\x00\x00\x00\x00'
p2343
tp2344
Rp2345
s(I24
I5
tp2346
g4
(g8
S'\x02\x00\x00\x00\x00\x00\x00\x00'
p2347
tp2348
Rp2349
s(I48
I2
tp2350
g4
(g8
S'\x01\x00\x00\x00\x00\x00\x00\x00'
p2351
tp2352
Rp2353
s(I96
I12
tp2354
g4
(g8
S'\x01\x00\x00\x00\x00\x00\x00\x00'
p2355
tp2356
Rp2357
s(I94
I3
tp2358
g4
(g8
S'\x00\x00\x00\x00\x00\x00\x00\x00'
p2359
tp2360
Rp2361
s(I52
I8
tp2362
g4
(g8
S'\x01\x00\x00\x00\x00\x00\x00\x00'
p2363
tp2364
Rp2365
s(I26
I7
tp2366
g4
(g8
S'\x01\x00\x00\x00\x00\x00\x00\x00'
p2367
tp2368
Rp2369
s(I50
I8
tp2370
g4
(g8
S'\x01\x00\x00\x00\x00\x00\x00\x00'
p2371
tp2372
Rp2373
s(I98
I14
tp2374
g4
(g8
S'\x01\x00\x00\x00\x00\x00\x00\x00'
p2375
tp2376
Rp2377
s(I40
I14
tp2378
g4
(g8
S'\x01\x00\x00\x00\x00\x00\x00\x00'
p2379
tp2380
Rp2381
s(I30
I1
tp2382
g4
(g8
S'\x01\x00\x00\x00\x00\x00\x00\x00'
p2383
tp2384
Rp2385
s(I54
I2
tp2386
g4
(g8
S'\x01\x00\x00\x00\x00\x00\x00\x00'
p2387
tp2388
Rp2389
s(I40
I7
tp2390
g4
(g8
S'\x01\x00\x00\x00\x00\x00\x00\x00'
p2391
tp2392
Rp2393
s(I98
I16
tp2394
g4
(g8
S'\x01\x00\x00\x00\x00\x00\x00\x00'
p2395
tp2396
Rp2397
s(I72
I3
tp2398
g4
(g8
S'\x02\x00\x00\x00\x00\x00\x00\x00'
p2399
tp2400
Rp2401
s(I42
I12
tp2402
g4
(g8
S'\x01\x00\x00\x00\x00\x00\x00\x00'
p2403
tp2404
Rp2405
s(I66
I1
tp2406
g4
(g8
S'\x01\x00\x00\x00\x00\x00\x00\x00'
p2407
tp2408
Rp2409
s(I90
I2
tp2410
g4
(g8
S'\x01\x00\x00\x00\x00\x00\x00\x00'
p2411
tp2412
Rp2413
s(I88
I1
tp2414
g4
(g8
S'\x01\x00\x00\x00\x00\x00\x00\x00'
p2415
tp2416
Rp2417
s(I90
I17
tp2418
g4
(g8
S'\x01\x00\x00\x00\x00\x00\x00\x00'
p2419
tp2420
Rp2421
s(I46
I14
tp2422
g4
(g8
S'\x01\x00\x00\x00\x00\x00\x00\x00'
p2423
tp2424
Rp2425
s(I84
I3
tp2426
g4
(g8
S'\x02\x00\x00\x00\x00\x00\x00\x00'
p2427
tp2428
Rp2429
s(I44
I10
tp2430
g4
(g8
S'\x02\x00\x00\x00\x00\x00\x00\x00'
p2431
tp2432
Rp2433
s(I92
I12
tp2434
g4
(g8
S'\x01\x00\x00\x00\x00\x00\x00\x00'
p2435
tp2436
Rp2437
s(I32
I0
tp2438
g4
(g8
S'\x01\x00\x00\x00\x00\x00\x00\x00'
p2439
tp2440
Rp2441
s(I80
I10
tp2442
g4
(g8
S'\x01\x00\x00\x00\x00\x00\x00\x00'
p2443
tp2444
Rp2445
s(I36
I14
tp2446
g4
(g8
S'\x01\x00\x00\x00\x00\x00\x00\x00'
p2447
tp2448
Rp2449
s(I60
I3
tp2450
g4
(g8
S'\x01\x00\x00\x00\x00\x00\x00\x00'
p2451
tp2452
Rp2453
s(I34
I10
tp2454
g4
(g8
S'\x02\x00\x00\x00\x00\x00\x00\x00'
p2455
tp2456
Rp2457
s(I82
I16
tp2458
g4
(g8
S'\x01\x00\x00\x00\x00\x00\x00\x00'
p2459
tp2460
Rp2461
s(I38
I12
tp2462
g4
(g8
S'\x01\x00\x00\x00\x00\x00\x00\x00'
p2463
tp2464
Rp2465
s(I96
I3
tp2466
g4
(g8
S'\x00\x00\x00\x00\x00\x00\x00\x00'
p2467
tp2468
Rp2469
s(I86
I10
tp2470
g4
(g8
S'\x01\x00\x00\x00\x00\x00\x00\x00'
p2471
tp2472
Rp2473
s(I50
I3
tp2474
g4
(g8
S'\x02\x00\x00\x00\x00\x00\x00\x00'
p2475
tp2476
Rp2477
s(I74
I4
tp2478
g4
(g8
S'\x01\x00\x00\x00\x00\x00\x00\x00'
p2479
tp2480
Rp2481
s(I98
I9
tp2482
g4
(g8
S'\x01\x00\x00\x00\x00\x00\x00\x00'
p2483
tp2484
Rp2485
s(I68
I10
tp2486
g4
(g8
S'\x01\x00\x00\x00\x00\x00\x00\x00'
p2487
tp2488
Rp2489
s(I84
I8
tp2490
g4
(g8
S'\x01\x00\x00\x00\x00\x00\x00\x00'
p2491
tp2492
Rp2493
s(I30
I8
tp2494
g4
(g8
S'\x01\x00\x00\x00\x00\x00\x00\x00'
p2495
tp2496
Rp2497
s(I54
I5
tp2498
g4
(g8
S'\x01\x00\x00\x00\x00\x00\x00\x00'
p2499
tp2500
Rp2501
s(I28
I8
tp2502
g4
(g8
S'\x01\x00\x00\x00\x00\x00\x00\x00'
p2503
tp2504
Rp2505
s(I100
I14
tp2506
g4
(g8
S'\x01\x00\x00\x00\x00\x00\x00\x00'
p2507
tp2508
Rp2509
s(I90
I13
tp2510
g4
(g8
S'\x01\x00\x00\x00\x00\x00\x00\x00'
p2511
tp2512
Rp2513
s(I64
I8
tp2514
g4
(g8
S'\x01\x00\x00\x00\x00\x00\x00\x00'
p2515
tp2516
Rp2517
s(I20
I12
tp2518
g4
(g8
S'\x01\x00\x00\x00\x00\x00\x00\x00'
p2519
tp2520
Rp2521
s(I44
I1
tp2522
g4
(g8
S'\x00\x00\x00\x00\x00\x00\x00\x00'
p2523
tp2524
Rp2525
s(I68
I6
tp2526
g4
(g8
S'\x01\x00\x00\x00\x00\x00\x00\x00'
p2527
tp2528
Rp2529
s(I92
I11
tp2530
g4
(g8
S'\x01\x00\x00\x00\x00\x00\x00\x00'
p2531
tp2532
Rp2533
s(I78
I12
tp2534
g4
(g8
S'\x01\x00\x00\x00\x00\x00\x00\x00'
p2535
tp2536
Rp2537
s(I94
I14
tp2538
g4
(g8
S'\x01\x00\x00\x00\x00\x00\x00\x00'
p2539
tp2540
Rp2541
s(I8
I10
tp2542
g4
(g8
S'\x00\x00\x00\x00\x00\x00\x00\x00'
p2543
tp2544
Rp2545
s(I32
I7
tp2546
g4
(g8
S'\x01\x00\x00\x00\x00\x00\x00\x00'
p2547
tp2548
Rp2549
s(I56
I4
tp2550
g4
(g8
S'\x01\x00\x00\x00\x00\x00\x00\x00'
p2551
tp2552
Rp2553
s(I80
I1
tp2554
g4
(g8
S'\x01\x00\x00\x00\x00\x00\x00\x00'
p2555
tp2556
Rp2557
s(I94
I17
tp2558
g4
(g8
S'\x01\x00\x00\x00\x00\x00\x00\x00'
p2559
tp2560
Rp2561
s(I92
I10
tp2562
g4
(g8
S'\x01\x00\x00\x00\x00\x00\x00\x00'
p2563
tp2564
Rp2565
s(I10
I0
tp2566
g4
(g8
S'\x01\x00\x00\x00\x00\x00\x00\x00'
p2567
tp2568
Rp2569
s(I34
I5
tp2570
g4
(g8
S'\x01\x00\x00\x00\x00\x00\x00\x00'
p2571
tp2572
Rp2573
s(I58
I6
tp2574
g4
(g8
S'\x01\x00\x00\x00\x00\x00\x00\x00'
p2575
tp2576
Rp2577
s(I82
I11
tp2578
g4
(g8
S'\x01\x00\x00\x00\x00\x00\x00\x00'
p2579
tp2580
Rp2581
s(I38
I7
tp2582
g4
(g8
S'\x01\x00\x00\x00\x00\x00\x00\x00'
p2583
tp2584
Rp2585
s(I62
I0
tp2586
g4
(g8
S'\x01\x00\x00\x00\x00\x00\x00\x00'
p2587
tp2588
Rp2589
s(I86
I13
tp2590
g4
(g8
S'\x01\x00\x00\x00\x00\x00\x00\x00'
p2591
tp2592
Rp2593
s(I72
I14
tp2594
g4
(g8
S'\x01\x00\x00\x00\x00\x00\x00\x00'
p2595
tp2596
Rp2597
s(I88
I12
tp2598
g4
(g8
S'\x01\x00\x00\x00\x00\x00\x00\x00'
p2599
tp2600
Rp2601
s(I26
I9
tp2602
g4
(g8
S'\x01\x00\x00\x00\x00\x00\x00\x00'
p2603
tp2604
Rp2605
s(I70
I0
tp2606
g4
(g8
S'\x00\x00\x00\x00\x00\x00\x00\x00'
p2607
tp2608
Rp2609
s(I74
I15
tp2610
g4
(g8
S'\x01\x00\x00\x00\x00\x00\x00\x00'
p2611
tp2612
Rp2613
s(I98
I0
tp2614
g4
(g8
S'\x01\x00\x00\x00\x00\x00\x00\x00'
p2615
tp2616
Rp2617
s(I28
I7
tp2618
g4
(g8
S'\x01\x00\x00\x00\x00\x00\x00\x00'
p2619
tp2620
Rp2621
s(I52
I4
tp2622
g4
(g8
S'\x01\x00\x00\x00\x00\x00\x00\x00'
p2623
tp2624
Rp2625
s(I76
I9
tp2626
g4
(g8
S'\x01\x00\x00\x00\x00\x00\x00\x00'
p2627
tp2628
Rp2629
s(I16
I5
tp2630
g4
(g8
S'\x00\x00\x00\x00\x00\x00\x00\x00'
p2631
tp2632
Rp2633
s(I64
I15
tp2634
g4
(g8
S'\x01\x00\x00\x00\x00\x00\x00\x00'
p2635
tp2636
Rp2637
s(I98
I18
tp2638
g4
(g8
S'\x01\x00\x00\x00\x00\x00\x00\x00'
p2639
tp2640
Rp2641
s(I22
I9
tp2642
g4
(g8
S'\x01\x00\x00\x00\x00\x00\x00\x00'
p2643
tp2644
Rp2645
s(I68
I13
tp2646
g4
(g8
S'\x01\x00\x00\x00\x00\x00\x00\x00'
p2647
tp2648
Rp2649
s(I72
I1
tp2650
g4
(g8
S'\x01\x00\x00\x00\x00\x00\x00\x00'
p2651
tp2652
Rp2653
s(I66
I13
tp2654
g4
(g8
S'\x01\x00\x00\x00\x00\x00\x00\x00'
p2655
tp2656
Rp2657
s(I96
I14
tp2658
g4
(g8
S'\x01\x00\x00\x00\x00\x00\x00\x00'
p2659
tp2660
Rp2661
s(I56
I11
tp2662
g4
(g8
S'\x01\x00\x00\x00\x00\x00\x00\x00'
p2663
tp2664
Rp2665
s(I46
I2
tp2666
g4
(g8
S'\x01\x00\x00\x00\x00\x00\x00\x00'
p2667
tp2668
Rp2669
s(I70
I15
tp2670
g4
(g8
S'\x02\x00\x00\x00\x00\x00\x00\x00'
p2671
tp2672
Rp2673
s(I86
I16
tp2674
g4
(g8
S'\x01\x00\x00\x00\x00\x00\x00\x00'
p2675
tp2676
Rp2677
s(I60
I17
tp2678
g4
(g8
S'\x01\x00\x00\x00\x00\x00\x00\x00'
p2679
tp2680
Rp2681
s(I58
I1
tp2682
g4
(g8
S'\x01\x00\x00\x00\x00\x00\x00\x00'
p2683
tp2684
Rp2685
s(I82
I2
tp2686
g4
(g8
S'\x01\x00\x00\x00\x00\x00\x00\x00'
p2687
tp2688
Rp2689
s(I62
I11
tp2690
g4
(g8
S'\x01\x00\x00\x00\x00\x00\x00\x00'
p2691
tp2692
Rp2693
s(I86
I4
tp2694
g4
(g8
S'\x01\x00\x00\x00\x00\x00\x00\x00'
p2695
tp2696
Rp2697
s(I60
I15
tp2698
g4
(g8
S'\x01\x00\x00\x00\x00\x00\x00\x00'
p2699
tp2700
Rp2701
s(I84
I2
tp2702
g4
(g8
S'\x01\x00\x00\x00\x00\x00\x00\x00'
p2703
tp2704
Rp2705
s(I24
I0
tp2706
g4
(g8
S'\x00\x00\x00\x00\x00\x00\x00\x00'
p2707
tp2708
Rp2709
s(I48
I13
tp2710
g4
(g8
S'\x01\x00\x00\x00\x00\x00\x00\x00'
p2711
tp2712
Rp2713
s(I78
I16
tp2714
g4
(g8
S'\x01\x00\x00\x00\x00\x00\x00\x00'
p2715
tp2716
Rp2717
s(I52
I3
tp2718
g4
(g8
S'\x01\x00\x00\x00\x00\x00\x00\x00'
p2719
tp2720
Rp2721
s(I2
I0
tp2722
g4
(g8
S'\x01\x00\x00\x00\x00\x00\x00\x00'
p2723
tp2724
Rp2725
s(I50
I15
tp2726
g4
(g8
S'\x02\x00\x00\x00\x00\x00\x00\x00'
p2727
tp2728
Rp2729
s(I74
I16
tp2730
g4
(g8
S'\x01\x00\x00\x00\x00\x00\x00\x00'
p2731
tp2732
Rp2733
s(I94
I4
tp2734
g4
(g8
S'\x01\x00\x00\x00\x00\x00\x00\x00'
p2735
tp2736
Rp2737
s(I68
I8
tp2738
g4
(g8
S'\x01\x00\x00\x00\x00\x00\x00\x00'
p2739
tp2740
Rp2741
s(I84
I14
tp2742
g4
(g8
S'\x01\x00\x00\x00\x00\x00\x00\x00'
p2743
tp2744
Rp2745
s(I40
I9
tp2746
g4
(g8
S'\x01\x00\x00\x00\x00\x00\x00\x00'
p2747
tp2748
Rp2749
s(I64
I6
tp2750
g4
(g8
S'\x01\x00\x00\x00\x00\x00\x00\x00'
p2751
tp2752
Rp2753
s(I54
I9
tp2754
g4
(g8
S'\x01\x00\x00\x00\x00\x00\x00\x00'
p2755
tp2756
Rp2757
s(I100
I12
tp2758
g4
(g8
S'\x02\x00\x00\x00\x00\x00\x00\x00'
p2759
tp2760
Rp2761
s(I42
I3
tp2762
g4
(g8
S'\x00\x00\x00\x00\x00\x00\x00\x00'
p2763
tp2764
Rp2765
s(I66
I4
tp2766
g4
(g8
S'\x01\x00\x00\x00\x00\x00\x00\x00'
p2767
tp2768
Rp2769
s(I88
I6
tp2770
g4
(g8
S'\x02\x00\x00\x00\x00\x00\x00\x00'
p2771
tp2772
Rp2773
s(I46
I5
tp2774
g4
(g8
S'\x01\x00\x00\x00\x00\x00\x00\x00'
p2775
tp2776
Rp2777
s(I70
I6
tp2778
g4
(g8
S'\x01\x00\x00\x00\x00\x00\x00\x00'
p2779
tp2780
Rp2781
s(I44
I13
tp2782
g4
(g8
S'\x01\x00\x00\x00\x00\x00\x00\x00'
p2783
tp2784
Rp2785
s(I78
I14
tp2786
g4
(g8
S'\x01\x00\x00\x00\x00\x00\x00\x00'
p2787
tp2788
Rp2789
s(I94
I8
tp2790
g4
(g8
S'\x01\x00\x00\x00\x00\x00\x00\x00'
p2791
tp2792
Rp2793
s(I58
I8
tp2794
g4
(g8
S'\x01\x00\x00\x00\x00\x00\x00\x00'
p2795
tp2796
Rp2797
s(I32
I11
tp2798
g4
(g8
S'\x02\x00\x00\x00\x00\x00\x00\x00'
p2799
tp2800
Rp2801
s(I36
I1
tp2802
g4
(g8
S'\x01\x00\x00\x00\x00\x00\x00\x00'
p2803
tp2804
Rp2805
s(I60
I6
tp2806
g4
(g8
S'\x01\x00\x00\x00\x00\x00\x00\x00'
p2807
tp2808
Rp2809
s(I62
I13
tp2810
g4
(g8
S'\x01\x00\x00\x00\x00\x00\x00\x00'
p2811
tp2812
Rp2813
s(I48
I4
tp2814
g4
(g8
S'\x01\x00\x00\x00\x00\x00\x00\x00'
p2815
tp2816
Rp2817
s(I38
I11
tp2818
g4
(g8
S'\x01\x00\x00\x00\x00\x00\x00\x00'
p2819
tp2820
Rp2821
s(I56
I0
tp2822
g4
(g8
S'\x01\x00\x00\x00\x00\x00\x00\x00'
p2823
tp2824
Rp2825
s(I72
I12
tp2826
g4
(g8
S'\x01\x00\x00\x00\x00\x00\x00\x00'
p2827
tp2828
Rp2829
s(I94
I11
tp2830
g4
(g8
S'\x01\x00\x00\x00\x00\x00\x00\x00'
p2831
tp2832
Rp2833
s(I88
I10
tp2834
g4
(g8
S'\x01\x00\x00\x00\x00\x00\x00\x00'
p2835
tp2836
Rp2837
s(I52
I10
tp2838
g4
(g8
S'\x01\x00\x00\x00\x00\x00\x00\x00'
p2839
tp2840
Rp2841
s(I50
I6
tp2842
g4
(g8
S'\x01\x00\x00\x00\x00\x00\x00\x00'
p2843
tp2844
Rp2845
s(I98
I12
tp2846
g4
(g8
S'\x01\x00\x00\x00\x00\x00\x00\x00'
p2847
tp2848
Rp2849
s(I56
I15
tp2850
g4
(g8
S'\x01\x00\x00\x00\x00\x00\x00\x00'
p2851
tp2852
Rp2853
s(I54
I0
tp2854
g4
(g8
S'\x01\x00\x00\x00\x00\x00\x00\x00'
p2855
tp2856
Rp2857
ssS'rewards'
p2858
(lp2859
(I-475
I0
tp2860
a(I-515
I1
tp2861
a(I-465
I2
tp2862
a(I-505
I3
tp2863
a(I-500
I4
tp2864
a(I-445
I5
tp2865
a(I-510
I6
tp2866
a(I-480
I7
tp2867
a(I-525
I8
tp2868
a(I-460
I9
tp2869
a(I-475
I10
tp2870
a(I-450
I11
tp2871
a(I-480
I12
tp2872
a(I-475
I13
tp2873
a(I-465
I14
tp2874
a(I-450
I15
tp2875
a(I-495
I16
tp2876
a(I-525
I17
tp2877
a(I-435
I18
tp2878
a(I-425
I19
tp2879
a(I-440
I20
tp2880
a(I-490
I21
tp2881
a(I-520
I22
tp2882
a(I-450
I23
tp2883
a(I-445
I24
tp2884
a(I-430
I25
tp2885
a(I-405
I26
tp2886
a(I-445
I27
tp2887
a(I-435
I28
tp2888
a(I-470
I29
tp2889
a(I-480
I30
tp2890
a(I-380
I31
tp2891
a(I-470
I32
tp2892
a(I-450
I33
tp2893
a(I-395
I34
tp2894
a(I-400
I35
tp2895
a(I-440
I36
tp2896
a(I-450
I37
tp2897
a(I-405
I38
tp2898
a(I-385
I39
tp2899
a(I-445
I40
tp2900
a(I-465
I41
tp2901
a(I-465
I42
tp2902
a(I-525
I43
tp2903
a(I-410
I44
tp2904
a(I-400
I45
tp2905
a(I-400
I46
tp2906
a(I-425
I47
tp2907
a(I-425
I48
tp2908
a(I-385
I49
tp2909
a(I-370
I50
tp2910
a(I-380
I51
tp2911
a(I-475
I52
tp2912
a(I-365
I53
tp2913
a(I-395
I54
tp2914
a(I-400
I55
tp2915
a(I-420
I56
tp2916
a(I-350
I57
tp2917
a(I-325
I58
tp2918
a(I-355
I59
tp2919
a(I-365
I60
tp2920
a(I-390
I61
tp2921
a(I-385
I62
tp2922
a(I-410
I63
tp2923
a(I-425
I64
tp2924
a(I-355
I65
tp2925
a(I-395
I66
tp2926
a(I-345
I67
tp2927
a(I-345
I68
tp2928
a(I-365
I69
tp2929
a(I-405
I70
tp2930
a(I-375
I71
tp2931
a(I-320
I72
tp2932
a(I-370
I73
tp2933
a(I-470
I74
tp2934
a(I-370
I75
tp2935
a(I-310
I76
tp2936
a(I-290
I77
tp2937
a(I-380
I78
tp2938
a(I-330
I79
tp2939
a(I-375
I80
tp2940
a(I-270
I81
tp2941
a(I-395
I82
tp2942
a(I-330
I83
tp2943
a(I-360
I84
tp2944
a(I-325
I85
tp2945
a(I-285
I86
tp2946
a(I-390
I87
tp2947
a(I-355
I88
tp2948
a(I-370
I89
tp2949
a(I-345
I90
tp2950
a(I-280
I91
tp2951
a(I-300
I92
tp2952
a(I-315
I93
tp2953
a(I-325
I94
tp2954
a(I-300
I95
tp2955
a(I-375
I96
tp2956
a(I-310
I97
tp2957
a(I-295
I98
tp2958
a(I-345
I99
tp2959
a(I-355
I100
tp2960
a(I-295
I101
tp2961
a(I-235
I102
tp2962
a(I-290
I103
tp2963
a(I-280
I104
tp2964
a(I-355
I105
tp2965
a(I-290
I106
tp2966
a(I-345
I107
tp2967
a(I-295
I108
tp2968
a(I-325
I109
tp2969
a(I-295
I110
tp2970
a(I-260
I111
tp2971
a(I-240
I112
tp2972
a(I-280
I113
tp2973
a(I-270
I114
tp2974
a(I-310
I115
tp2975
a(I-245
I116
tp2976
a(I-325
I117
tp2977
a(I-350
I118
tp2978
a(I-310
I119
tp2979
a(I-305
I120
tp2980
a(I-310
I121
tp2981
a(I-345
I122
tp2982
a(I-245
I123
tp2983
a(I-300
I124
tp2984
a(I-275
I125
tp2985
a(I-195
I126
tp2986
a(I-225
I127
tp2987
a(I-315
I128
tp2988
a(I-650
I129
tp2989
a(I-230
I130
tp2990
a(I-240
I131
tp2991
a(I-305
I132
tp2992
a(I-280
I133
tp2993
a(I-240
I134
tp2994
a(I-240
I135
tp2995
a(I-315
I136
tp2996
a(I-310
I137
tp2997
a(I-270
I138
tp2998
a(I-555
I139
tp2999
a(I-205
I140
tp3000
a(I-240
I141
tp3001
a(I-670
I142
tp3002
a(I-225
I143
tp3003
a(I-290
I144
tp3004
a(I-235
I145
tp3005
a(I-670
I146
tp3006
a(I-235
I147
tp3007
a(I-265
I148
tp3008
a(I-280
I149
tp3009
a(I-265
I150
tp3010
a(I-230
I151
tp3011
a(I-230
I152
tp3012
a(I-205
I153
tp3013
a(I-245
I154
tp3014
a(I-225
I155
tp3015
a(I-265
I156
tp3016
a(I-295
I157
tp3017
a(I-200
I158
tp3018
a(I-230
I159
tp3019
a(I-205
I160
tp3020
a(I-225
I161
tp3021
a(I-170
I162
tp3022
a(I-240
I163
tp3023
a(I-195
I164
tp3024
a(I-205
I165
tp3025
a(I-265
I166
tp3026
a(I-185
I167
tp3027
a(I-270
I168
tp3028
a(I-660
I169
tp3029
a(I-275
I170
tp3030
a(I-190
I171
tp3031
a(I-300
I172
tp3032
a(I-225
I173
tp3033
a(I-200
I174
tp3034
a(I-250
I175
tp3035
a(I-185
I176
tp3036
a(I-230
I177
tp3037
a(I-275
I178
tp3038
a(I-235
I179
tp3039
a(I-155
I180
tp3040
a(I-215
I181
tp3041
a(I-165
I182
tp3042
a(I-290
I183
tp3043
a(I-215
I184
tp3044
a(I-200
I185
tp3045
a(I-145
I186
tp3046
a(I-215
I187
tp3047
a(I-175
I188
tp3048
a(I-165
I189
tp3049
a(I-240
I190
tp3050
a(I-190
I191
tp3051
a(I-225
I192
tp3052
a(I-165
I193
tp3053
a(I-210
I194
tp3054
a(I-205
I195
tp3055
a(I-175
I196
tp3056
a(I-205
I197
tp3057
a(I-190
I198
tp3058
a(I-170
I199
tp3059
a(I-255
I200
tp3060
a(I-205
I201
tp3061
a(I-235
I202
tp3062
a(I-220
I203
tp3063
a(I-185
I204
tp3064
a(I-195
I205
tp3065
a(I-160
I206
tp3066
a(I-195
I207
tp3067
a(I-180
I208
tp3068
a(I-195
I209
tp3069
a(I-160
I210
tp3070
a(I-225
I211
tp3071
a(I-240
I212
tp3072
a(I-225
I213
tp3073
a(I-170
I214
tp3074
a(I-590
I215
tp3075
a(I-200
I216
tp3076
a(I-185
I217
tp3077
a(I-205
I218
tp3078
a(I-160
I219
tp3079
a(I-155
I220
tp3080
a(I-190
I221
tp3081
a(I-185
I222
tp3082
a(I-150
I223
tp3083
a(I-215
I224
tp3084
a(I-150
I225
tp3085
a(I-195
I226
tp3086
a(I-165
I227
tp3087
a(I-195
I228
tp3088
a(I-145
I229
tp3089
a(I-185
I230
tp3090
a(I-190
I231
tp3091
a(I-175
I232
tp3092
a(I-130
I233
tp3093
a(I-185
I234
tp3094
a(I-140
I235
tp3095
a(I-145
I236
tp3096
a(I-200
I237
tp3097
a(I-125
I238
tp3098
a(I-190
I239
tp3099
a(I-175
I240
tp3100
a(I-615
I241
tp3101
a(I-165
I242
tp3102
a(I-140
I243
tp3103
a(I-200
I244
tp3104
a(I-130
I245
tp3105
a(I-205
I246
tp3106
a(I-170
I247
tp3107
a(I-190
I248
tp3108
a(I-155
I249
tp3109
a(I-125
I250
tp3110
a(I-160
I251
tp3111
a(I-210
I252
tp3112
a(I-95
I253
tp3113
a(I-100
I254
tp3114
a(I-170
I255
tp3115
a(I-145
I256
tp3116
a(I-130
I257
tp3117
a(I-160
I258
tp3118
a(I-170
I259
tp3119
a(I-140
I260
tp3120
a(I-160
I261
tp3121
a(I-100
I262
tp3122
a(I-180
I263
tp3123
a(I-160
I264
tp3124
a(I-175
I265
tp3125
a(I-140
I266
tp3126
a(I-210
I267
tp3127
a(I-625
I268
tp3128
a(I-120
I269
tp3129
a(I-155
I270
tp3130
a(I-125
I271
tp3131
a(I-175
I272
tp3132
a(I-155
I273
tp3133
a(I-185
I274
tp3134
a(I-140
I275
tp3135
a(I-150
I276
tp3136
a(I-565
I277
tp3137
a(I-150
I278
tp3138
a(I-145
I279
tp3139
a(I-140
I280
tp3140
a(I-625
I281
tp3141
a(I-145
I282
tp3142
a(I-190
I283
tp3143
a(I-205
I284
tp3144
a(I-165
I285
tp3145
a(I-155
I286
tp3146
a(I-135
I287
tp3147
a(I-165
I288
tp3148
a(I-90
I289
tp3149
a(I-160
I290
tp3150
a(I-150
I291
tp3151
a(I-130
I292
tp3152
a(I-140
I293
tp3153
a(I-145
I294
tp3154
a(I-195
I295
tp3155
a(I-185
I296
tp3156
a(I-160
I297
tp3157
a(I-95
I298
tp3158
a(I-150
I299
tp3159
a(I-150
I300
tp3160
a(I-140
I301
tp3161
a(I-175
I302
tp3162
a(I-580
I303
tp3163
a(I-170
I304
tp3164
a(I-125
I305
tp3165
a(I-150
I306
tp3166
a(I-85
I307
tp3167
a(I-115
I308
tp3168
a(I-120
I309
tp3169
a(I-120
I310
tp3170
a(I-135
I311
tp3171
a(I-90
I312
tp3172
a(I-170
I313
tp3173
a(I-145
I314
tp3174
a(I-190
I315
tp3175
a(I-95
I316
tp3176
a(I-150
I317
tp3177
a(I-125
I318
tp3178
a(I-165
I319
tp3179
a(I-165
I320
tp3180
a(I-640
I321
tp3181
a(I-100
I322
tp3182
a(I-115
I323
tp3183
a(I-140
I324
tp3184
a(I-110
I325
tp3185
a(I-125
I326
tp3186
a(I-90
I327
tp3187
a(I-100
I328
tp3188
a(I-115
I329
tp3189
a(I-130
I330
tp3190
a(I-60
I331
tp3191
a(I-120
I332
tp3192
a(I-130
I333
tp3193
a(I-95
I334
tp3194
a(I-120
I335
tp3195
a(I-75
I336
tp3196
a(I-145
I337
tp3197
a(I-85
I338
tp3198
a(I-95
I339
tp3199
a(I-110
I340
tp3200
a(I-110
I341
tp3201
a(I-100
I342
tp3202
a(I-125
I343
tp3203
a(I-125
I344
tp3204
a(I-125
I345
tp3205
a(I-120
I346
tp3206
a(I-605
I347
tp3207
a(I-110
I348
tp3208
a(I-165
I349
tp3209
a(I-110
I350
tp3210
a(I-100
I351
tp3211
a(I-75
I352
tp3212
a(I-135
I353
tp3213
a(I-110
I354
tp3214
a(I-105
I355
tp3215
a(I-110
I356
tp3216
a(I-85
I357
tp3217
a(I-75
I358
tp3218
a(I-105
I359
tp3219
a(I-90
I360
tp3220
a(I-80
I361
tp3221
a(I-125
I362
tp3222
a(I-110
I363
tp3223
a(I-85
I364
tp3224
a(I-95
I365
tp3225
a(I-140
I366
tp3226
a(I-150
I367
tp3227
a(I-130
I368
tp3228
a(I-120
I369
tp3229
a(I-110
I370
tp3230
a(I-110
I371
tp3231
a(I-145
I372
tp3232
a(I-95
I373
tp3233
a(I-85
I374
tp3234
a(I-110
I375
tp3235
a(I-95
I376
tp3236
a(I-570
I377
tp3237
a(I-70
I378
tp3238
a(I-105
I379
tp3239
a(I-100
I380
tp3240
a(I-95
I381
tp3241
a(I-95
I382
tp3242
a(I-90
I383
tp3243
a(I-85
I384
tp3244
a(I-75
I385
tp3245
a(I-100
I386
tp3246
a(I-100
I387
tp3247
a(I-110
I388
tp3248
a(I-95
I389
tp3249
a(I-115
I390
tp3250
a(I-130
I391
tp3251
a(I-105
I392
tp3252
a(I-90
I393
tp3253
a(I-90
I394
tp3254
a(I-90
I395
tp3255
a(I-95
I396
tp3256
a(I-110
I397
tp3257
a(I-110
I398
tp3258
a(I-100
I399
tp3259
a(I-90
I400
tp3260
a(I-110
I401
tp3261
a(I-65
I402
tp3262
a(I-90
I403
tp3263
a(I-90
I404
tp3264
a(I-60
I405
tp3265
a(I-80
I406
tp3266
a(I-95
I407
tp3267
a(I-70
I408
tp3268
a(I-90
I409
tp3269
a(I-80
I410
tp3270
a(I-505
I411
tp3271
a(I-120
I412
tp3272
a(I-85
I413
tp3273
a(I-85
I414
tp3274
a(I-55
I415
tp3275
a(I-75
I416
tp3276
a(I-115
I417
tp3277
a(I-80
I418
tp3278
a(I-50
I419
tp3279
a(I-50
I420
tp3280
a(I-75
I421
tp3281
a(I-115
I422
tp3282
a(I-95
I423
tp3283
a(I-65
I424
tp3284
a(I-95
I425
tp3285
a(I-100
I426
tp3286
a(I-70
I427
tp3287
a(I-150
I428
tp3288
a(I-130
I429
tp3289
a(I-105
I430
tp3290
a(I-70
I431
tp3291
a(I-590
I432
tp3292
a(I-100
I433
tp3293
a(I-115
I434
tp3294
a(I-75
I435
tp3295
a(I-100
I436
tp3296
a(I-80
I437
tp3297
a(I-75
I438
tp3298
a(I-105
I439
tp3299
a(I-100
I440
tp3300
a(I-130
I441
tp3301
a(I-75
I442
tp3302
a(I-90
I443
tp3303
a(I-90
I444
tp3304
a(I-60
I445
tp3305
a(I-70
I446
tp3306
a(I-75
I447
tp3307
a(I-85
I448
tp3308
a(I-110
I449
tp3309
a(I-85
I450
tp3310
a(I-80
I451
tp3311
a(I-55
I452
tp3312
a(I-75
I453
tp3313
a(I-80
I454
tp3314
a(I-60
I455
tp3315
a(I-35
I456
tp3316
a(I-100
I457
tp3317
a(I-85
I458
tp3318
a(I-80
I459
tp3319
a(I-50
I460
tp3320
a(I-80
I461
tp3321
a(I-75
I462
tp3322
a(I-105
I463
tp3323
a(I-60
I464
tp3324
a(I-105
I465
tp3325
a(I-125
I466
tp3326
a(I-80
I467
tp3327
a(I-100
I468
tp3328
a(I-80
I469
tp3329
a(I-95
I470
tp3330
a(I-70
I471
tp3331
a(I-60
I472
tp3332
a(I-90
I473
tp3333
a(I-75
I474
tp3334
a(I-530
I475
tp3335
a(I-95
I476
tp3336
a(I-80
I477
tp3337
a(I-140
I478
tp3338
a(I-60
I479
tp3339
a(I-80
I480
tp3340
a(I-100
I481
tp3341
a(I-85
I482
tp3342
a(I-50
I483
tp3343
a(I-65
I484
tp3344
a(I-85
I485
tp3345
a(I-65
I486
tp3346
a(I-70
I487
tp3347
a(I-95
I488
tp3348
a(I-80
I489
tp3349
a(I-45
I490
tp3350
a(I-70
I491
tp3351
a(I-110
I492
tp3352
a(I-85
I493
tp3353
a(I-60
I494
tp3354
a(I-85
I495
tp3355
a(I-70
I496
tp3356
a(I-85
I497
tp3357
a(I-65
I498
tp3358
a(I-540
I499
tp3359
a(I-95
I500
tp3360
a(I-85
I501
tp3361
a(I-90
I502
tp3362
a(I-70
I503
tp3363
a(I-80
I504
tp3364
a(I-65
I505
tp3365
a(I-55
I506
tp3366
a(I-85
I507
tp3367
a(I-100
I508
tp3368
a(I-90
I509
tp3369
a(I-55
I510
tp3370
a(I-100
I511
tp3371
a(I-90
I512
tp3372
a(I-70
I513
tp3373
a(I-75
I514
tp3374
a(I-80
I515
tp3375
a(I-75
I516
tp3376
a(I-65
I517
tp3377
a(I-115
I518
tp3378
a(I-70
I519
tp3379
a(I-85
I520
tp3380
a(I-60
I521
tp3381
a(I-85
I522
tp3382
a(I-90
I523
tp3383
a(I-85
I524
tp3384
a(I-55
I525
tp3385
a(I-70
I526
tp3386
a(I-85
I527
tp3387
a(I-545
I528
tp3388
a(I-60
I529
tp3389
a(I-110
I530
tp3390
a(I-60
I531
tp3391
a(I-95
I532
tp3392
a(I-95
I533
tp3393
a(I-65
I534
tp3394
a(I-95
I535
tp3395
a(I-65
I536
tp3396
a(I-85
I537
tp3397
a(I-105
I538
tp3398
a(I-70
I539
tp3399
a(I-85
I540
tp3400
a(I-85
I541
tp3401
a(I-95
I542
tp3402
a(I-65
I543
tp3403
a(I-85
I544
tp3404
a(I-65
I545
tp3405
a(I-95
I546
tp3406
a(I-85
I547
tp3407
a(I-105
I548
tp3408
a(I-85
I549
tp3409
a(I-85
I550
tp3410
a(I-90
I551
tp3411
a(I-50
I552
tp3412
a(I-40
I553
tp3413
a(I-85
I554
tp3414
a(I-95
I555
tp3415
a(I-85
I556
tp3416
a(I-70
I557
tp3417
a(I-65
I558
tp3418
a(I-60
I559
tp3419
a(I-80
I560
tp3420
a(I-75
I561
tp3421
a(I-70
I562
tp3422
a(I-100
I563
tp3423
a(I-60
I564
tp3424
a(I-60
I565
tp3425
a(I-65
I566
tp3426
a(I-75
I567
tp3427
a(I-70
I568
tp3428
a(I-550
I569
tp3429
a(I-95
I570
tp3430
a(I-60
I571
tp3431
a(I-70
I572
tp3432
a(I-70
I573
tp3433
a(I-80
I574
tp3434
a(I-80
I575
tp3435
a(I-90
I576
tp3436
a(I-75
I577
tp3437
a(I-75
I578
tp3438
a(I-65
I579
tp3439
a(I-60
I580
tp3440
a(I-80
I581
tp3441
a(I-95
I582
tp3442
a(I-90
I583
tp3443
a(I-95
I584
tp3444
a(I-85
I585
tp3445
a(I-90
I586
tp3446
a(I-75
I587
tp3447
a(I-65
I588
tp3448
a(I-90
I589
tp3449
a(I-45
I590
tp3450
a(I-45
I591
tp3451
a(I-60
I592
tp3452
a(I-75
I593
tp3453
a(I-60
I594
tp3454
a(I-95
I595
tp3455
a(I-55
I596
tp3456
a(I-85
I597
tp3457
a(I-60
I598
tp3458
a(I-60
I599
tp3459
a(I-65
I600
tp3460
a(I-65
I601
tp3461
a(I-80
I602
tp3462
a(I-60
I603
tp3463
a(I-100
I604
tp3464
a(I-60
I605
tp3465
a(I-65
I606
tp3466
a(I-65
I607
tp3467
a(I-50
I608
tp3468
a(I-95
I609
tp3469
a(I-50
I610
tp3470
a(I-85
I611
tp3471
a(I-75
I612
tp3472
a(I-65
I613
tp3473
a(I-65
I614
tp3474
a(I-55
I615
tp3475
a(I-70
I616
tp3476
a(I-75
I617
tp3477
a(I-70
I618
tp3478
a(I-70
I619
tp3479
a(I-75
I620
tp3480
a(I-45
I621
tp3481
a(I-45
I622
tp3482
a(I-80
I623
tp3483
a(I-60
I624
tp3484
a(I-65
I625
tp3485
a(I-85
I626
tp3486
a(I-55
I627
tp3487
a(I-80
I628
tp3488
a(I-75
I629
tp3489
a(I-55
I630
tp3490
a(I-75
I631
tp3491
a(I-50
I632
tp3492
a(I-60
I633
tp3493
a(I-80
I634
tp3494
a(I-70
I635
tp3495
a(I-80
I636
tp3496
a(I-90
I637
tp3497
a(I-60
I638
tp3498
a(I-70
I639
tp3499
a(I-75
I640
tp3500
a(I-60
I641
tp3501
a(I-65
I642
tp3502
a(I-55
I643
tp3503
a(I-50
I644
tp3504
a(I-65
I645
tp3505
a(I-70
I646
tp3506
a(I-55
I647
tp3507
a(I-55
I648
tp3508
a(I-45
I649
tp3509
a(I-65
I650
tp3510
a(I-80
I651
tp3511
a(I-50
I652
tp3512
a(I-70
I653
tp3513
a(I-45
I654
tp3514
a(I-60
I655
tp3515
a(I-45
I656
tp3516
a(I-55
I657
tp3517
a(I-70
I658
tp3518
a(I-45
I659
tp3519
a(I-85
I660
tp3520
a(I-50
I661
tp3521
a(I-60
I662
tp3522
a(I-60
I663
tp3523
a(I-55
I664
tp3524
a(I-55
I665
tp3525
a(I-65
I666
tp3526
a(I-65
I667
tp3527
a(I-75
I668
tp3528
a(I-50
I669
tp3529
a(I-70
I670
tp3530
a(I-40
I671
tp3531
a(I-90
I672
tp3532
a(I-55
I673
tp3533
a(I-55
I674
tp3534
a(I-55
I675
tp3535
a(I-65
I676
tp3536
a(I-75
I677
tp3537
a(I-85
I678
tp3538
a(I-80
I679
tp3539
a(I-75
I680
tp3540
a(I-65
I681
tp3541
a(I-85
I682
tp3542
a(I-70
I683
tp3543
a(I-60
I684
tp3544
a(I-75
I685
tp3545
a(I-40
I686
tp3546
a(I-80
I687
tp3547
a(I-35
I688
tp3548
a(I-55
I689
tp3549
a(I-70
I690
tp3550
a(I-65
I691
tp3551
a(I-40
I692
tp3552
a(I-50
I693
tp3553
a(I-60
I694
tp3554
a(I-65
I695
tp3555
a(I-65
I696
tp3556
a(I-60
I697
tp3557
a(I-50
I698
tp3558
a(I-80
I699
tp3559
a(I-70
I700
tp3560
a(I-75
I701
tp3561
a(I-85
I702
tp3562
a(I-60
I703
tp3563
a(I-50
I704
tp3564
a(I-65
I705
tp3565
a(I-60
I706
tp3566
a(I-75
I707
tp3567
a(I-70
I708
tp3568
a(I-60
I709
tp3569
a(I-65
I710
tp3570
a(I-75
I711
tp3571
a(I-60
I712
tp3572
a(I-80
I713
tp3573
a(I-75
I714
tp3574
a(I-70
I715
tp3575
a(I-65
I716
tp3576
a(I-55
I717
tp3577
a(I-45
I718
tp3578
a(I-60
I719
tp3579
a(I-70
I720
tp3580
a(I-75
I721
tp3581
a(I-60
I722
tp3582
a(I-60
I723
tp3583
a(I-60
I724
tp3584
a(I-100
I725
tp3585
a(I-65
I726
tp3586
a(I-110
I727
tp3587
a(I-65
I728
tp3588
a(I-60
I729
tp3589
a(I-60
I730
tp3590
a(I-50
I731
tp3591
a(I-50
I732
tp3592
a(I-60
I733
tp3593
a(I-65
I734
tp3594
a(I-65
I735
tp3595
a(I-65
I736
tp3596
a(I-60
I737
tp3597
a(I-90
I738
tp3598
a(I-50
I739
tp3599
a(I-50
I740
tp3600
a(I-560
I741
tp3601
a(I-50
I742
tp3602
a(I-65
I743
tp3603
a(I-65
I744
tp3604
a(I-85
I745
tp3605
a(I-75
I746
tp3606
a(I-55
I747
tp3607
a(I-535
I748
tp3608
a(I-40
I749
tp3609
a(I-50
I750
tp3610
a(I-540
I751
tp3611
a(I-60
I752
tp3612
a(I-55
I753
tp3613
a(I-50
I754
tp3614
a(I-60
I755
tp3615
a(I-55
I756
tp3616
a(I-60
I757
tp3617
a(I-70
I758
tp3618
a(I-70
I759
tp3619
a(I-80
I760
tp3620
a(I-60
I761
tp3621
a(I-60
I762
tp3622
a(I-70
I763
tp3623
a(I-55
I764
tp3624
a(I-30
I765
tp3625
a(I-30
I766
tp3626
a(I-35
I767
tp3627
a(I-70
I768
tp3628
a(I-40
I769
tp3629
a(I-30
I770
tp3630
a(I-55
I771
tp3631
a(I-65
I772
tp3632
a(I-40
I773
tp3633
a(I-50
I774
tp3634
a(I-40
I775
tp3635
a(I-45
I776
tp3636
a(I-60
I777
tp3637
a(I-525
I778
tp3638
a(I-60
I779
tp3639
a(I-55
I780
tp3640
a(I-65
I781
tp3641
a(I-40
I782
tp3642
a(I-70
I783
tp3643
a(I-65
I784
tp3644
a(I-65
I785
tp3645
a(I-75
I786
tp3646
a(I-70
I787
tp3647
a(I-50
I788
tp3648
a(I-75
I789
tp3649
a(I-80
I790
tp3650
a(I-60
I791
tp3651
a(I-550
I792
tp3652
a(I-535
I793
tp3653
a(I-50
I794
tp3654
a(I-60
I795
tp3655
a(I-70
I796
tp3656
a(I-560
I797
tp3657
a(I-60
I798
tp3658
a(I-60
I799
tp3659
a(I-75
I800
tp3660
a(I-40
I801
tp3661
a(I-85
I802
tp3662
a(I-70
I803
tp3663
a(I-80
I804
tp3664
a(I-75
I805
tp3665
a(I-90
I806
tp3666
a(I-60
I807
tp3667
a(I-70
I808
tp3668
a(I-30
I809
tp3669
a(I-60
I810
tp3670
a(I-55
I811
tp3671
a(I-530
I812
tp3672
a(I-550
I813
tp3673
a(I-60
I814
tp3674
a(I-75
I815
tp3675
a(I-45
I816
tp3676
a(I-60
I817
tp3677
a(I-115
I818
tp3678
a(I-60
I819
tp3679
a(I-35
I820
tp3680
a(I-70
I821
tp3681
a(I-50
I822
tp3682
a(I-75
I823
tp3683
a(I-55
I824
tp3684
a(I-40
I825
tp3685
a(I-50
I826
tp3686
a(I-70
I827
tp3687
a(I-40
I828
tp3688
a(I-75
I829
tp3689
a(I-50
I830
tp3690
a(I-80
I831
tp3691
a(I-75
I832
tp3692
a(I-70
I833
tp3693
a(I-65
I834
tp3694
a(I-60
I835
tp3695
a(I-70
I836
tp3696
a(I-85
I837
tp3697
a(I-55
I838
tp3698
a(I-55
I839
tp3699
a(I-65
I840
tp3700
a(I-75
I841
tp3701
a(I-45
I842
tp3702
a(I-40
I843
tp3703
a(I-50
I844
tp3704
a(I-50
I845
tp3705
a(I-40
I846
tp3706
a(I-45
I847
tp3707
a(I-40
I848
tp3708
a(I-55
I849
tp3709
a(I-40
I850
tp3710
a(I-40
I851
tp3711
a(I-65
I852
tp3712
a(I-70
I853
tp3713
a(I-60
I854
tp3714
a(I-60
I855
tp3715
a(I-80
I856
tp3716
a(I-50
I857
tp3717
a(I-60
I858
tp3718
a(I-60
I859
tp3719
a(I-40
I860
tp3720
a(I-55
I861
tp3721
a(I-60
I862
tp3722
a(I-50
I863
tp3723
a(I-125
I864
tp3724
a(I-530
I865
tp3725
a(I-70
I866
tp3726
a(I-65
I867
tp3727
a(I-80
I868
tp3728
a(I-60
I869
tp3729
a(I-45
I870
tp3730
a(I-60
I871
tp3731
a(I-60
I872
tp3732
a(I-80
I873
tp3733
a(I-70
I874
tp3734
a(I-95
I875
tp3735
a(I-60
I876
tp3736
a(I-75
I877
tp3737
a(I-70
I878
tp3738
a(I-70
I879
tp3739
a(I-50
I880
tp3740
a(I-75
I881
tp3741
a(I-60
I882
tp3742
a(I-80
I883
tp3743
a(I-90
I884
tp3744
a(I-75
I885
tp3745
a(I-95
I886
tp3746
a(I-75
I887
tp3747
a(I-70
I888
tp3748
a(I-55
I889
tp3749
a(I-60
I890
tp3750
a(I-60
I891
tp3751
a(I-100
I892
tp3752
a(I-75
I893
tp3753
a(I-65
I894
tp3754
a(I-145
I895
tp3755
a(I-90
I896
tp3756
a(I-110
I897
tp3757
a(I-50
I898
tp3758
a(I-90
I899
tp3759
a(I-40
I900
tp3760
a(I-70
I901
tp3761
a(I-55
I902
tp3762
a(I-90
I903
tp3763
a(I-105
I904
tp3764
a(I-60
I905
tp3765
a(I-60
I906
tp3766
a(I-545
I907
tp3767
a(I-40
I908
tp3768
a(I-90
I909
tp3769
a(I-85
I910
tp3770
a(I-55
I911
tp3771
a(I-75
I912
tp3772
a(I-40
I913
tp3773
a(I-250
I914
tp3774
a(I-50
I915
tp3775
a(I-60
I916
tp3776
a(I-75
I917
tp3777
a(I-70
I918
tp3778
a(I-60
I919
tp3779
a(I-60
I920
tp3780
a(I-60
I921
tp3781
a(I-60
I922
tp3782
a(I-80
I923
tp3783
a(I-65
I924
tp3784
a(I-75
I925
tp3785
a(I-55
I926
tp3786
a(I-50
I927
tp3787
a(I-75
I928
tp3788
a(I-90
I929
tp3789
a(I-50
I930
tp3790
a(I-45
I931
tp3791
a(I-65
I932
tp3792
a(I-65
I933
tp3793
a(I-75
I934
tp3794
a(I-60
I935
tp3795
a(I-45
I936
tp3796
a(I-85
I937
tp3797
a(I-70
I938
tp3798
a(I-70
I939
tp3799
a(I-65
I940
tp3800
a(I-55
I941
tp3801
a(I-60
I942
tp3802
a(I-95
I943
tp3803
a(I-60
I944
tp3804
a(I-50
I945
tp3805
a(I-90
I946
tp3806
a(I-75
I947
tp3807
a(I-95
I948
tp3808
a(I-50
I949
tp3809
a(I-70
I950
tp3810
a(I-110
I951
tp3811
a(I-550
I952
tp3812
a(I-45
I953
tp3813
a(I-65
I954
tp3814
a(I-115
I955
tp3815
a(I-95
I956
tp3816
a(I-110
I957
tp3817
a(I-60
I958
tp3818
a(I-45
I959
tp3819
a(I-75
I960
tp3820
a(I-115
I961
tp3821
a(I-95
I962
tp3822
a(I-50
I963
tp3823
a(I-35
I964
tp3824
a(I-40
I965
tp3825
a(I-40
I966
tp3826
a(I-125
I967
tp3827
a(I-45
I968
tp3828
a(I-60
I969
tp3829
a(I-45
I970
tp3830
a(I-50
I971
tp3831
a(I-105
I972
tp3832
a(I-45
I973
tp3833
a(I-55
I974
tp3834
a(I-45
I975
tp3835
a(I-60
I976
tp3836
a(I-40
I977
tp3837
a(I-60
I978
tp3838
a(I-80
I979
tp3839
a(I-90
I980
tp3840
a(I-50
I981
tp3841
a(I-60
I982
tp3842
a(I-70
I983
tp3843
a(I-95
I984
tp3844
a(I-60
I985
tp3845
a(I-45
I986
tp3846
a(I-30
I987
tp3847
a(I-50
I988
tp3848
a(I-40
I989
tp3849
a(I-70
I990
tp3850
a(I-65
I991
tp3851
a(I-55
I992
tp3852
a(I-75
I993
tp3853
a(I-100
I994
tp3854
a(I-60
I995
tp3855
a(I-40
I996
tp3856
a(I-60
I997
tp3857
a(I-50
I998
tp3858
a(I-55
I999
tp3859
a(I-85
I1000
tp3860
a(I-55
I1001
tp3861
a(I-70
I1002
tp3862
a(I-90
I1003
tp3863
a(I-90
I1004
tp3864
a(I-50
I1005
tp3865
a(I-65
I1006
tp3866
a(I-65
I1007
tp3867
a(I-50
I1008
tp3868
a(I-60
I1009
tp3869
a(I-50
I1010
tp3870
a(I-45
I1011
tp3871
a(I-60
I1012
tp3872
a(I-130
I1013
tp3873
a(I-45
I1014
tp3874
a(I-90
I1015
tp3875
a(I-90
I1016
tp3876
a(I-60
I1017
tp3877
a(I-60
I1018
tp3878
a(I-50
I1019
tp3879
a(I-95
I1020
tp3880
a(I-85
I1021
tp3881
a(I-90
I1022
tp3882
a(I-90
I1023
tp3883
a(I-60
I1024
tp3884
a(I-70
I1025
tp3885
a(I-90
I1026
tp3886
a(I-70
I1027
tp3887
a(I-65
I1028
tp3888
a(I-145
I1029
tp3889
a(I-585
I1030
tp3890
a(I-75
I1031
tp3891
a(I-50
I1032
tp3892
a(I-50
I1033
tp3893
a(I-75
I1034
tp3894
a(I-60
I1035
tp3895
a(I-55
I1036
tp3896
a(I-70
I1037
tp3897
a(I-50
I1038
tp3898
a(I-45
I1039
tp3899
a(I-45
I1040
tp3900
a(I-75
I1041
tp3901
a(I-75
I1042
tp3902
a(I-110
I1043
tp3903
a(I-65
I1044
tp3904
a(I-40
I1045
tp3905
a(I-75
I1046
tp3906
a(I-50
I1047
tp3907
a(I-85
I1048
tp3908
a(I-90
I1049
tp3909
a(I-70
I1050
tp3910
a(I-115
I1051
tp3911
a(I-65
I1052
tp3912
a(I-70
I1053
tp3913
a(I-105
I1054
tp3914
a(I-75
I1055
tp3915
a(I-530
I1056
tp3916
a(I-70
I1057
tp3917
a(I-50
I1058
tp3918
a(I-80
I1059
tp3919
a(I-85
I1060
tp3920
a(I-80
I1061
tp3921
a(I-40
I1062
tp3922
a(I-40
I1063
tp3923
a(I-40
I1064
tp3924
a(I-70
I1065
tp3925
a(I-30
I1066
tp3926
a(I-60
I1067
tp3927
a(I-165
I1068
tp3928
a(I-80
I1069
tp3929
a(I-60
I1070
tp3930
a(I-65
I1071
tp3931
a(I-90
I1072
tp3932
a(I-50
I1073
tp3933
a(I-80
I1074
tp3934
a(I-55
I1075
tp3935
a(I-55
I1076
tp3936
a(I-65
I1077
tp3937
a(I-55
I1078
tp3938
a(I-70
I1079
tp3939
a(I-40
I1080
tp3940
a(I-65
I1081
tp3941
a(I-110
I1082
tp3942
a(I-60
I1083
tp3943
a(I-85
I1084
tp3944
a(I-85
I1085
tp3945
a(I-55
I1086
tp3946
a(I-40
I1087
tp3947
a(I-50
I1088
tp3948
a(I-60
I1089
tp3949
a(I-90
I1090
tp3950
a(I-75
I1091
tp3951
a(I-55
I1092
tp3952
a(I-85
I1093
tp3953
a(I-40
I1094
tp3954
a(I-45
I1095
tp3955
a(I-120
I1096
tp3956
a(I-75
I1097
tp3957
a(I-110
I1098
tp3958
a(I-40
I1099
tp3959
a(I-70
I1100
tp3960
a(I-130
I1101
tp3961
a(I-65
I1102
tp3962
a(I-95
I1103
tp3963
a(I-130
I1104
tp3964
a(I-70
I1105
tp3965
a(I-110
I1106
tp3966
a(I-70
I1107
tp3967
a(I-45
I1108
tp3968
a(I-50
I1109
tp3969
a(I-85
I1110
tp3970
a(I-125
I1111
tp3971
a(I-75
I1112
tp3972
a(I-540
I1113
tp3973
a(I-70
I1114
tp3974
a(I-75
I1115
tp3975
a(I-60
I1116
tp3976
a(I-80
I1117
tp3977
a(I-55
I1118
tp3978
a(I-120
I1119
tp3979
a(I-90
I1120
tp3980
a(I-50
I1121
tp3981
a(I-45
I1122
tp3982
a(I-70
I1123
tp3983
a(I-55
I1124
tp3984
a(I-50
I1125
tp3985
a(I-100
I1126
tp3986
a(I-115
I1127
tp3987
a(I-40
I1128
tp3988
a(I-60
I1129
tp3989
a(I-45
I1130
tp3990
a(I-60
I1131
tp3991
a(I-115
I1132
tp3992
a(I-75
I1133
tp3993
a(I-155
I1134
tp3994
a(I-40
I1135
tp3995
a(I-60
I1136
tp3996
a(I-50
I1137
tp3997
a(I-40
I1138
tp3998
a(I-105
I1139
tp3999
a(I-110
I1140
tp4000
a(I-80
I1141
tp4001
a(I-100
I1142
tp4002
a(I-120
I1143
tp4003
a(I-75
I1144
tp4004
a(I-105
I1145
tp4005
a(I-60
I1146
tp4006
a(I-135
I1147
tp4007
a(I-55
I1148
tp4008
a(I-45
I1149
tp4009
a(I-120
I1150
tp4010
a(I-50
I1151
tp4011
a(I-110
I1152
tp4012
a(I-60
I1153
tp4013
a(I-105
I1154
tp4014
a(I-50
I1155
tp4015
a(I-65
I1156
tp4016
a(I-70
I1157
tp4017
a(I-45
I1158
tp4018
a(I-65
I1159
tp4019
a(I-70
I1160
tp4020
a(I-50
I1161
tp4021
a(I-110
I1162
tp4022
a(I-90
I1163
tp4023
a(I-60
I1164
tp4024
a(I-50
I1165
tp4025
a(I-55
I1166
tp4026
a(I-55
I1167
tp4027
a(I-70
I1168
tp4028
a(I-60
I1169
tp4029
a(I-45
I1170
tp4030
a(I-165
I1171
tp4031
a(I-75
I1172
tp4032
a(I-70
I1173
tp4033
a(I-60
I1174
tp4034
a(I-60
I1175
tp4035
a(I-80
I1176
tp4036
a(I-80
I1177
tp4037
a(I-45
I1178
tp4038
a(I-45
I1179
tp4039
a(I-70
I1180
tp4040
a(I-80
I1181
tp4041
a(I-55
I1182
tp4042
a(I-170
I1183
tp4043
a(I-65
I1184
tp4044
a(I-60
I1185
tp4045
a(I-60
I1186
tp4046
a(I-70
I1187
tp4047
a(I-45
I1188
tp4048
a(I-70
I1189
tp4049
a(I-40
I1190
tp4050
a(I-70
I1191
tp4051
a(I-60
I1192
tp4052
a(I-30
I1193
tp4053
a(I-80
I1194
tp4054
a(I-65
I1195
tp4055
a(I-30
I1196
tp4056
a(I-45
I1197
tp4057
a(I-100
I1198
tp4058
a(I-50
I1199
tp4059
a(I-95
I1200
tp4060
a(I-30
I1201
tp4061
a(I-65
I1202
tp4062
a(I-50
I1203
tp4063
a(I-60
I1204
tp4064
a(I-45
I1205
tp4065
a(I-80
I1206
tp4066
a(I-75
I1207
tp4067
a(I-55
I1208
tp4068
a(I-80
I1209
tp4069
a(I-30
I1210
tp4070
a(I-65
I1211
tp4071
a(I-85
I1212
tp4072
a(I-90
I1213
tp4073
a(I-55
I1214
tp4074
a(I-120
I1215
tp4075
a(I-60
I1216
tp4076
a(I-150
I1217
tp4077
a(I-120
I1218
tp4078
a(I-60
I1219
tp4079
a(I-65
I1220
tp4080
a(I-60
I1221
tp4081
a(I-110
I1222
tp4082
a(I-70
I1223
tp4083
a(I-65
I1224
tp4084
a(I-75
I1225
tp4085
a(I-90
I1226
tp4086
a(I-80
I1227
tp4087
a(I-85
I1228
tp4088
a(I-60
I1229
tp4089
a(I-40
I1230
tp4090
a(I-60
I1231
tp4091
a(I-95
I1232
tp4092
a(I-90
I1233
tp4093
a(I-65
I1234
tp4094
a(I-75
I1235
tp4095
a(I-90
I1236
tp4096
a(I-85
I1237
tp4097
a(I-80
I1238
tp4098
a(I-105
I1239
tp4099
a(I-100
I1240
tp4100
a(I-80
I1241
tp4101
a(I-75
I1242
tp4102
a(I-65
I1243
tp4103
a(I-75
I1244
tp4104
a(I-75
I1245
tp4105
a(I-70
I1246
tp4106
a(I-50
I1247
tp4107
a(I-30
I1248
tp4108
a(I-100
I1249
tp4109
a(I-80
I1250
tp4110
a(I-40
I1251
tp4111
a(I-85
I1252
tp4112
a(I-105
I1253
tp4113
a(I-80
I1254
tp4114
a(I-75
I1255
tp4115
a(I-50
I1256
tp4116
a(I-320
I1257
tp4117
a(I-330
I1258
tp4118
a(I-50
I1259
tp4119
a(I-70
I1260
tp4120
a(I-65
I1261
tp4121
a(I-85
I1262
tp4122
a(I-70
I1263
tp4123
a(I-45
I1264
tp4124
a(I-50
I1265
tp4125
a(I-40
I1266
tp4126
a(I-115
I1267
tp4127
a(I-110
I1268
tp4128
a(I-90
I1269
tp4129
a(I-70
I1270
tp4130
a(I-135
I1271
tp4131
a(I-70
I1272
tp4132
a(I-60
I1273
tp4133
a(I-120
I1274
tp4134
a(I-95
I1275
tp4135
a(I-75
I1276
tp4136
a(I-120
I1277
tp4137
a(I-60
I1278
tp4138
a(I-60
I1279
tp4139
a(I-65
I1280
tp4140
a(I-115
I1281
tp4141
a(I-70
I1282
tp4142
a(I-125
I1283
tp4143
a(I-70
I1284
tp4144
a(I-60
I1285
tp4145
a(I-75
I1286
tp4146
a(I-120
I1287
tp4147
a(I-70
I1288
tp4148
a(I-60
I1289
tp4149
a(I-130
I1290
tp4150
a(I-40
I1291
tp4151
a(I-140
I1292
tp4152
a(I-75
I1293
tp4153
a(I-80
I1294
tp4154
a(I-70
I1295
tp4155
a(I-45
I1296
tp4156
a(I-75
I1297
tp4157
a(I-70
I1298
tp4158
a(I-80
I1299
tp4159
a(I-70
I1300
tp4160
a(I-75
I1301
tp4161
a(I-140
I1302
tp4162
a(I-110
I1303
tp4163
a(I-70
I1304
tp4164
a(I-50
I1305
tp4165
a(I-40
I1306
tp4166
a(I-45
I1307
tp4167
a(I-95
I1308
tp4168
a(I-50
I1309
tp4169
a(I-30
I1310
tp4170
a(I-110
I1311
tp4171
a(I-40
I1312
tp4172
a(I-60
I1313
tp4173
a(I-45
I1314
tp4174
a(I-135
I1315
tp4175
a(I-30
I1316
tp4176
a(I-85
I1317
tp4177
a(I-80
I1318
tp4178
a(I-135
I1319
tp4179
a(I-65
I1320
tp4180
a(I-80
I1321
tp4181
a(I-45
I1322
tp4182
a(I-55
I1323
tp4183
a(I-95
I1324
tp4184
a(I-80
I1325
tp4185
a(I-30
I1326
tp4186
a(I-30
I1327
tp4187
a(I-50
I1328
tp4188
a(I-60
I1329
tp4189
a(I-45
I1330
tp4190
a(I-65
I1331
tp4191
a(I-30
I1332
tp4192
a(I-60
I1333
tp4193
a(I-55
I1334
tp4194
a(I-560
I1335
tp4195
a(I-65
I1336
tp4196
a(I-70
I1337
tp4197
a(I-115
I1338
tp4198
a(I-55
I1339
tp4199
a(I-70
I1340
tp4200
a(I-140
I1341
tp4201
a(I-40
I1342
tp4202
a(I-50
I1343
tp4203
a(I-60
I1344
tp4204
a(I-120
I1345
tp4205
a(I-80
I1346
tp4206
a(I-100
I1347
tp4207
a(I-70
I1348
tp4208
a(I-60
I1349
tp4209
a(I-80
I1350
tp4210
a(I-180
I1351
tp4211
a(I-75
I1352
tp4212
a(I-60
I1353
tp4213
a(I-100
I1354
tp4214
a(I-45
I1355
tp4215
a(I-45
I1356
tp4216
a(I-105
I1357
tp4217
a(I-120
I1358
tp4218
a(I-90
I1359
tp4219
a(I-40
I1360
tp4220
a(I-120
I1361
tp4221
a(I-40
I1362
tp4222
a(I-40
I1363
tp4223
a(I-55
I1364
tp4224
a(I-40
I1365
tp4225
a(I-85
I1366
tp4226
a(I-105
I1367
tp4227
a(I-90
I1368
tp4228
a(I-100
I1369
tp4229
a(I-80
I1370
tp4230
a(I-60
I1371
tp4231
a(I-50
I1372
tp4232
a(I-70
I1373
tp4233
a(I-65
I1374
tp4234
a(I-110
I1375
tp4235
a(I-80
I1376
tp4236
a(I-60
I1377
tp4237
a(I-70
I1378
tp4238
a(I-80
I1379
tp4239
a(I-70
I1380
tp4240
a(I-40
I1381
tp4241
a(I-55
I1382
tp4242
a(I-60
I1383
tp4243
a(I-95
I1384
tp4244
a(I-40
I1385
tp4245
a(I-65
I1386
tp4246
a(I-70
I1387
tp4247
a(I-45
I1388
tp4248
a(I-80
I1389
tp4249
a(I-250
I1390
tp4250
a(I-65
I1391
tp4251
a(I-90
I1392
tp4252
a(I-105
I1393
tp4253
a(I-155
I1394
tp4254
a(I-90
I1395
tp4255
a(I-75
I1396
tp4256
a(I-95
I1397
tp4257
a(I-60
I1398
tp4258
a(I-135
I1399
tp4259
a(I-80
I1400
tp4260
a(I-130
I1401
tp4261
a(I-100
I1402
tp4262
a(I-80
I1403
tp4263
a(I-110
I1404
tp4264
a(I-45
I1405
tp4265
a(I-45
I1406
tp4266
a(I-60
I1407
tp4267
a(I-65
I1408
tp4268
a(I-65
I1409
tp4269
a(I-45
I1410
tp4270
a(I-100
I1411
tp4271
a(I-90
I1412
tp4272
a(I-45
I1413
tp4273
a(I-55
I1414
tp4274
a(I-70
I1415
tp4275
a(I-30
I1416
tp4276
a(I-90
I1417
tp4277
a(I-40
I1418
tp4278
a(I-55
I1419
tp4279
a(I-30
I1420
tp4280
a(I-70
I1421
tp4281
a(I-80
I1422
tp4282
a(I-30
I1423
tp4283
a(I-45
I1424
tp4284
a(I-60
I1425
tp4285
a(I-80
I1426
tp4286
a(I-75
I1427
tp4287
a(I-60
I1428
tp4288
a(I-60
I1429
tp4289
a(I-110
I1430
tp4290
a(I-35
I1431
tp4291
a(I-120
I1432
tp4292
a(I-45
I1433
tp4293
a(I-30
I1434
tp4294
a(I-50
I1435
tp4295
a(I-100
I1436
tp4296
a(I-115
I1437
tp4297
a(I-100
I1438
tp4298
a(I-50
I1439
tp4299
a(I-90
I1440
tp4300
a(I-90
I1441
tp4301
a(I-135
I1442
tp4302
a(I-165
I1443
tp4303
a(I-30
I1444
tp4304
a(I-40
I1445
tp4305
a(I-180
I1446
tp4306
a(I-70
I1447
tp4307
a(I-85
I1448
tp4308
a(I-80
I1449
tp4309
a(I-185
I1450
tp4310
a(I-60
I1451
tp4311
a(I-145
I1452
tp4312
a(I-570
I1453
tp4313
a(I-50
I1454
tp4314
a(I-45
I1455
tp4315
a(I-55
I1456
tp4316
a(I-40
I1457
tp4317
a(I-45
I1458
tp4318
a(I-75
I1459
tp4319
a(I-50
I1460
tp4320
a(I-80
I1461
tp4321
a(I-60
I1462
tp4322
a(I-80
I1463
tp4323
a(I-105
I1464
tp4324
a(I-50
I1465
tp4325
a(I-75
I1466
tp4326
a(I-100
I1467
tp4327
a(I-70
I1468
tp4328
a(I-55
I1469
tp4329
a(I-50
I1470
tp4330
a(I-65
I1471
tp4331
a(I-40
I1472
tp4332
a(I-50
I1473
tp4333
a(I-40
I1474
tp4334
a(I-60
I1475
tp4335
a(I-75
I1476
tp4336
a(I-165
I1477
tp4337
a(I-225
I1478
tp4338
a(I-45
I1479
tp4339
a(I-100
I1480
tp4340
a(I-75
I1481
tp4341
a(I-60
I1482
tp4342
a(I-65
I1483
tp4343
a(I-110
I1484
tp4344
a(I-70
I1485
tp4345
a(I-85
I1486
tp4346
a(I-70
I1487
tp4347
a(I-80
I1488
tp4348
a(I-60
I1489
tp4349
a(I-60
I1490
tp4350
a(I-50
I1491
tp4351
a(I-45
I1492
tp4352
a(I-70
I1493
tp4353
a(I-55
I1494
tp4354
a(I-85
I1495
tp4355
a(I-50
I1496
tp4356
a(I-40
I1497
tp4357
a(I-40
I1498
tp4358
a(I-70
I1499
tp4359
a(I-60
I1500
tp4360
a(I-40
I1501
tp4361
a(I-55
I1502
tp4362
a(I-55
I1503
tp4363
a(I-120
I1504
tp4364
a(I-50
I1505
tp4365
a(I-50
I1506
tp4366
a(I-50
I1507
tp4367
a(I-55
I1508
tp4368
a(I-105
I1509
tp4369
a(I-95
I1510
tp4370
a(I-375
I1511
tp4371
a(I-50
I1512
tp4372
a(I-55
I1513
tp4373
a(I-75
I1514
tp4374
a(I-85
I1515
tp4375
a(I-70
I1516
tp4376
a(I-85
I1517
tp4377
a(I-50
I1518
tp4378
a(I-50
I1519
tp4379
a(I-65
I1520
tp4380
a(I-110
I1521
tp4381
a(I-50
I1522
tp4382
a(I-105
I1523
tp4383
a(I-140
I1524
tp4384
a(I-90
I1525
tp4385
a(I-110
I1526
tp4386
a(I-90
I1527
tp4387
a(I-65
I1528
tp4388
a(I-80
I1529
tp4389
a(I-75
I1530
tp4390
a(I-60
I1531
tp4391
a(I-40
I1532
tp4392
a(I-40
I1533
tp4393
a(I-95
I1534
tp4394
a(I-60
I1535
tp4395
a(I-60
I1536
tp4396
a(I-60
I1537
tp4397
a(I-160
I1538
tp4398
a(I-70
I1539
tp4399
a(I-50
I1540
tp4400
a(I-60
I1541
tp4401
a(I-125
I1542
tp4402
a(I-70
I1543
tp4403
a(I-75
I1544
tp4404
a(I-65
I1545
tp4405
a(I-60
I1546
tp4406
a(I-60
I1547
tp4407
a(I-50
I1548
tp4408
a(I-55
I1549
tp4409
a(I-40
I1550
tp4410
a(I-50
I1551
tp4411
a(I-85
I1552
tp4412
a(I-65
I1553
tp4413
a(I-200
I1554
tp4414
a(I-50
I1555
tp4415
a(I-40
I1556
tp4416
a(I-60
I1557
tp4417
a(I-60
I1558
tp4418
a(I-80
I1559
tp4419
a(I-60
I1560
tp4420
a(I-60
I1561
tp4421
a(I-80
I1562
tp4422
a(I-60
I1563
tp4423
a(I-75
I1564
tp4424
a(I-65
I1565
tp4425
a(I-45
I1566
tp4426
a(I-40
I1567
tp4427
a(I-65
I1568
tp4428
a(I-140
I1569
tp4429
a(I-55
I1570
tp4430
a(I-75
I1571
tp4431
a(I-75
I1572
tp4432
a(I-90
I1573
tp4433
a(I-90
I1574
tp4434
a(I-90
I1575
tp4435
a(I-115
I1576
tp4436
a(I-85
I1577
tp4437
a(I-170
I1578
tp4438
a(I-50
I1579
tp4439
a(I-45
I1580
tp4440
a(I-70
I1581
tp4441
a(I-60
I1582
tp4442
a(I-90
I1583
tp4443
a(I-115
I1584
tp4444
a(I-70
I1585
tp4445
a(I-85
I1586
tp4446
a(I-40
I1587
tp4447
a(I-105
I1588
tp4448
a(I-70
I1589
tp4449
a(I-55
I1590
tp4450
a(I-45
I1591
tp4451
a(I-95
I1592
tp4452
a(I-95
I1593
tp4453
a(I-160
I1594
tp4454
a(I-60
I1595
tp4455
a(I-190
I1596
tp4456
a(I-190
I1597
tp4457
a(I-110
I1598
tp4458
a(I-85
I1599
tp4459
a(I-105
I1600
tp4460
a(I-80
I1601
tp4461
a(I-115
I1602
tp4462
a(I-65
I1603
tp4463
a(I-190
I1604
tp4464
a(I-55
I1605
tp4465
a(I-85
I1606
tp4466
a(I-60
I1607
tp4467
a(I-55
I1608
tp4468
a(I-75
I1609
tp4469
a(I-60
I1610
tp4470
a(I-80
I1611
tp4471
a(I-65
I1612
tp4472
a(I-75
I1613
tp4473
a(I-105
I1614
tp4474
a(I-55
I1615
tp4475
a(I-55
I1616
tp4476
a(I-70
I1617
tp4477
a(I-75
I1618
tp4478
a(I-95
I1619
tp4479
a(I-100
I1620
tp4480
a(I-85
I1621
tp4481
a(I-55
I1622
tp4482
a(I-165
I1623
tp4483
a(I-105
I1624
tp4484
a(I-55
I1625
tp4485
a(I-215
I1626
tp4486
a(I-160
I1627
tp4487
a(I-380
I1628
tp4488
a(I-60
I1629
tp4489
a(I-70
I1630
tp4490
a(I-150
I1631
tp4491
a(I-230
I1632
tp4492
a(I-105
I1633
tp4493
a(I-55
I1634
tp4494
a(I-50
I1635
tp4495
a(I-60
I1636
tp4496
a(I-90
I1637
tp4497
a(I-135
I1638
tp4498
a(I-180
I1639
tp4499
a(I-50
I1640
tp4500
a(I-150
I1641
tp4501
a(I-100
I1642
tp4502
a(I-70
I1643
tp4503
a(I-55
I1644
tp4504
a(I-70
I1645
tp4505
a(I-45
I1646
tp4506
a(I-45
I1647
tp4507
a(I-250
I1648
tp4508
a(I-45
I1649
tp4509
a(I-170
I1650
tp4510
a(I-50
I1651
tp4511
a(I-40
I1652
tp4512
a(I-40
I1653
tp4513
a(I-40
I1654
tp4514
a(I-50
I1655
tp4515
a(I-40
I1656
tp4516
a(I-180
I1657
tp4517
a(I-50
I1658
tp4518
a(I-340
I1659
tp4519
a(I-55
I1660
tp4520
a(I-45
I1661
tp4521
a(I-55
I1662
tp4522
a(I-130
I1663
tp4523
a(I-60
I1664
tp4524
a(I-40
I1665
tp4525
a(I-115
I1666
tp4526
a(I-235
I1667
tp4527
a(I-70
I1668
tp4528
a(I-150
I1669
tp4529
a(I-360
I1670
tp4530
a(I-70
I1671
tp4531
a(I-60
I1672
tp4532
a(I-80
I1673
tp4533
a(I-85
I1674
tp4534
a(I-50
I1675
tp4535
a(I-55
I1676
tp4536
a(I-40
I1677
tp4537
a(I-70
I1678
tp4538
a(I-70
I1679
tp4539
a(I-75
I1680
tp4540
a(I-70
I1681
tp4541
a(I-40
I1682
tp4542
a(I-60
I1683
tp4543
a(I-40
I1684
tp4544
a(I-50
I1685
tp4545
a(I-100
I1686
tp4546
a(I-160
I1687
tp4547
a(I-100
I1688
tp4548
a(I-55
I1689
tp4549
a(I-60
I1690
tp4550
a(I-45
I1691
tp4551
a(I-75
I1692
tp4552
a(I-50
I1693
tp4553
a(I-30
I1694
tp4554
a(I-45
I1695
tp4555
a(I-110
I1696
tp4556
a(I-70
I1697
tp4557
a(I-125
I1698
tp4558
a(I-160
I1699
tp4559
a(I-55
I1700
tp4560
a(I-55
I1701
tp4561
a(I-70
I1702
tp4562
a(I-60
I1703
tp4563
a(I-75
I1704
tp4564
a(I-30
I1705
tp4565
a(I-30
I1706
tp4566
a(I-30
I1707
tp4567
a(I-60
I1708
tp4568
a(I-55
I1709
tp4569
a(I-30
I1710
tp4570
a(I-60
I1711
tp4571
a(I-30
I1712
tp4572
a(I-45
I1713
tp4573
a(I-65
I1714
tp4574
a(I-45
I1715
tp4575
a(I-170
I1716
tp4576
a(I-75
I1717
tp4577
a(I-30
I1718
tp4578
a(I-60
I1719
tp4579
a(I-30
I1720
tp4580
a(I-100
I1721
tp4581
a(I-30
I1722
tp4582
a(I-45
I1723
tp4583
a(I-85
I1724
tp4584
a(I-45
I1725
tp4585
a(I-85
I1726
tp4586
a(I-105
I1727
tp4587
a(I-45
I1728
tp4588
a(I-45
I1729
tp4589
a(I-50
I1730
tp4590
a(I-260
I1731
tp4591
a(I-40
I1732
tp4592
a(I-80
I1733
tp4593
a(I-50
I1734
tp4594
a(I-80
I1735
tp4595
a(I-40
I1736
tp4596
a(I-45
I1737
tp4597
a(I-40
I1738
tp4598
a(I-40
I1739
tp4599
a(I-55
I1740
tp4600
a(I-50
I1741
tp4601
a(I-50
I1742
tp4602
a(I-60
I1743
tp4603
a(I-50
I1744
tp4604
a(I-45
I1745
tp4605
a(I-270
I1746
tp4606
a(I-65
I1747
tp4607
a(I-60
I1748
tp4608
a(I-65
I1749
tp4609
a(I-50
I1750
tp4610
a(I-40
I1751
tp4611
a(I-65
I1752
tp4612
a(I-70
I1753
tp4613
a(I-85
I1754
tp4614
a(I-50
I1755
tp4615
a(I-40
I1756
tp4616
a(I-45
I1757
tp4617
a(I-80
I1758
tp4618
a(I-70
I1759
tp4619
a(I-70
I1760
tp4620
a(I-80
I1761
tp4621
a(I-105
I1762
tp4622
a(I-70
I1763
tp4623
a(I-100
I1764
tp4624
a(I-135
I1765
tp4625
a(I-105
I1766
tp4626
a(I-55
I1767
tp4627
a(I-130
I1768
tp4628
a(I-55
I1769
tp4629
a(I-55
I1770
tp4630
a(I-40
I1771
tp4631
a(I-60
I1772
tp4632
a(I-75
I1773
tp4633
a(I-50
I1774
tp4634
a(I-85
I1775
tp4635
a(I-40
I1776
tp4636
a(I-60
I1777
tp4637
a(I-50
I1778
tp4638
a(I-65
I1779
tp4639
a(I-45
I1780
tp4640
a(I-40
I1781
tp4641
a(I-100
I1782
tp4642
a(I-90
I1783
tp4643
a(I-70
I1784
tp4644
a(I-45
I1785
tp4645
a(I-50
I1786
tp4646
a(I-80
I1787
tp4647
a(I-45
I1788
tp4648
a(I-50
I1789
tp4649
a(I-70
I1790
tp4650
a(I-40
I1791
tp4651
a(I-40
I1792
tp4652
a(I-320
I1793
tp4653
a(I-60
I1794
tp4654
a(I-95
I1795
tp4655
a(I-60
I1796
tp4656
a(I-55
I1797
tp4657
a(I-85
I1798
tp4658
a(I-55
I1799
tp4659
a(I-125
I1800
tp4660
a(I-80
I1801
tp4661
a(I-45
I1802
tp4662
a(I-60
I1803
tp4663
a(I-65
I1804
tp4664
a(I-60
I1805
tp4665
a(I-45
I1806
tp4666
a(I-40
I1807
tp4667
a(I-55
I1808
tp4668
a(I-45
I1809
tp4669
a(I-85
I1810
tp4670
a(I-115
I1811
tp4671
a(I-50
I1812
tp4672
a(I-45
I1813
tp4673
a(I-40
I1814
tp4674
a(I-65
I1815
tp4675
a(I-90
I1816
tp4676
a(I-95
I1817
tp4677
a(I-75
I1818
tp4678
a(I-45
I1819
tp4679
a(I-45
I1820
tp4680
a(I-45
I1821
tp4681
a(I-30
I1822
tp4682
a(I-70
I1823
tp4683
a(I-85
I1824
tp4684
a(I-80
I1825
tp4685
a(I-45
I1826
tp4686
a(I-30
I1827
tp4687
a(I-85
I1828
tp4688
a(I-45
I1829
tp4689
a(I-90
I1830
tp4690
a(I-30
I1831
tp4691
a(I-70
I1832
tp4692
a(I-50
I1833
tp4693
a(I-45
I1834
tp4694
a(I-80
I1835
tp4695
a(I-70
I1836
tp4696
a(I-65
I1837
tp4697
a(I-50
I1838
tp4698
a(I-55
I1839
tp4699
a(I-60
I1840
tp4700
a(I-70
I1841
tp4701
a(I-50
I1842
tp4702
a(I-70
I1843
tp4703
a(I-60
I1844
tp4704
a(I-70
I1845
tp4705
a(I-85
I1846
tp4706
a(I-110
I1847
tp4707
a(I-80
I1848
tp4708
a(I-50
I1849
tp4709
a(I-40
I1850
tp4710
a(I-60
I1851
tp4711
a(I-70
I1852
tp4712
a(I-60
I1853
tp4713
a(I-60
I1854
tp4714
a(I-50
I1855
tp4715
a(I-60
I1856
tp4716
a(I-70
I1857
tp4717
a(I-70
I1858
tp4718
a(I-60
I1859
tp4719
a(I-70
I1860
tp4720
a(I-115
I1861
tp4721
a(I-80
I1862
tp4722
a(I-55
I1863
tp4723
a(I-90
I1864
tp4724
a(I-110
I1865
tp4725
a(I-40
I1866
tp4726
a(I-150
I1867
tp4727
a(I-70
I1868
tp4728
a(I-75
I1869
tp4729
a(I-90
I1870
tp4730
a(I-70
I1871
tp4731
a(I-95
I1872
tp4732
a(I-90
I1873
tp4733
a(I-50
I1874
tp4734
a(I-50
I1875
tp4735
a(I-65
I1876
tp4736
a(I-155
I1877
tp4737
a(I-160
I1878
tp4738
a(I-115
I1879
tp4739
a(I-50
I1880
tp4740
a(I-100
I1881
tp4741
a(I-55
I1882
tp4742
a(I-75
I1883
tp4743
a(I-60
I1884
tp4744
a(I-145
I1885
tp4745
a(I-320
I1886
tp4746
a(I-40
I1887
tp4747
a(I-85
I1888
tp4748
a(I-90
I1889
tp4749
a(I-60
I1890
tp4750
a(I-60
I1891
tp4751
a(I-105
I1892
tp4752
a(I-90
I1893
tp4753
a(I-135
I1894
tp4754
a(I-90
I1895
tp4755
a(I-90
I1896
tp4756
a(I-80
I1897
tp4757
a(I-150
I1898
tp4758
a(I-100
I1899
tp4759
a(I-80
I1900
tp4760
a(I-100
I1901
tp4761
a(I-75
I1902
tp4762
a(I-70
I1903
tp4763
a(I-60
I1904
tp4764
a(I-60
I1905
tp4765
a(I-120
I1906
tp4766
a(I-40
I1907
tp4767
a(I-85
I1908
tp4768
a(I-45
I1909
tp4769
a(I-40
I1910
tp4770
a(I-95
I1911
tp4771
a(I-60
I1912
tp4772
a(I-50
I1913
tp4773
a(I-40
I1914
tp4774
a(I-85
I1915
tp4775
a(I-105
I1916
tp4776
a(I-40
I1917
tp4777
a(I-65
I1918
tp4778
a(I-60
I1919
tp4779
a(I-55
I1920
tp4780
a(I-290
I1921
tp4781
a(I-90
I1922
tp4782
a(I-75
I1923
tp4783
a(I-75
I1924
tp4784
a(I-60
I1925
tp4785
a(I-100
I1926
tp4786
a(I-55
I1927
tp4787
a(I-70
I1928
tp4788
a(I-305
I1929
tp4789
a(I-80
I1930
tp4790
a(I-195
I1931
tp4791
a(I-60
I1932
tp4792
a(I-75
I1933
tp4793
a(I-50
I1934
tp4794
a(I-70
I1935
tp4795
a(I-155
I1936
tp4796
a(I-60
I1937
tp4797
a(I-60
I1938
tp4798
a(I-55
I1939
tp4799
a(I-45
I1940
tp4800
a(I-50
I1941
tp4801
a(I-115
I1942
tp4802
a(I-180
I1943
tp4803
a(I-50
I1944
tp4804
a(I-155
I1945
tp4805
a(I-45
I1946
tp4806
a(I-40
I1947
tp4807
a(I-45
I1948
tp4808
a(I-75
I1949
tp4809
a(I-30
I1950
tp4810
a(I-85
I1951
tp4811
a(I-40
I1952
tp4812
a(I-30
I1953
tp4813
a(I-30
I1954
tp4814
a(I-55
I1955
tp4815
a(I-30
I1956
tp4816
a(I-45
I1957
tp4817
a(I-30
I1958
tp4818
a(I-235
I1959
tp4819
a(I-105
I1960
tp4820
a(I-35
I1961
tp4821
a(I-60
I1962
tp4822
a(I-120
I1963
tp4823
a(I-100
I1964
tp4824
a(I-55
I1965
tp4825
a(I-70
I1966
tp4826
a(I-30
I1967
tp4827
a(I-30
I1968
tp4828
a(I-30
I1969
tp4829
a(I-90
I1970
tp4830
a(I-85
I1971
tp4831
a(I-30
I1972
tp4832
a(I-40
I1973
tp4833
a(I-40
I1974
tp4834
a(I-80
I1975
tp4835
a(I-50
I1976
tp4836
a(I-105
I1977
tp4837
a(I-40
I1978
tp4838
a(I-50
I1979
tp4839
a(I-70
I1980
tp4840
a(I-585
I1981
tp4841
a(I-55
I1982
tp4842
a(I-60
I1983
tp4843
a(I-40
I1984
tp4844
a(I-155
I1985
tp4845
a(I-70
I1986
tp4846
a(I-155
I1987
tp4847
a(I-40
I1988
tp4848
a(I-300
I1989
tp4849
a(I-95
I1990
tp4850
a(I-50
I1991
tp4851
a(I-70
I1992
tp4852
a(I-60
I1993
tp4853
a(I-50
I1994
tp4854
a(I-60
I1995
tp4855
a(I-95
I1996
tp4856
a(I-105
I1997
tp4857
a(I-55
I1998
tp4858
a(I-70
I1999
tp4859
a(I-80
I2000
tp4860
a(I-80
I2001
tp4861
a(I-190
I2002
tp4862
a(I-40
I2003
tp4863
a(I-75
I2004
tp4864
a(I-70
I2005
tp4865
a(I-50
I2006
tp4866
a(I-50
I2007
tp4867
a(I-105
I2008
tp4868
a(I-55
I2009
tp4869
a(I-55
I2010
tp4870
a(I-180
I2011
tp4871
a(I-65
I2012
tp4872
a(I-50
I2013
tp4873
a(I-195
I2014
tp4874
a(I-125
I2015
tp4875
a(I-115
I2016
tp4876
a(I-65
I2017
tp4877
a(I-85
I2018
tp4878
a(I-70
I2019
tp4879
a(I-100
I2020
tp4880
a(I-90
I2021
tp4881
a(I-340
I2022
tp4882
a(I-135
I2023
tp4883
a(I-160
I2024
tp4884
a(I-295
I2025
tp4885
a(I-80
I2026
tp4886
a(I-85
I2027
tp4887
a(I-190
I2028
tp4888
a(I-55
I2029
tp4889
a(I-90
I2030
tp4890
a(I-100
I2031
tp4891
a(I-350
I2032
tp4892
a(I-260
I2033
tp4893
a(I-65
I2034
tp4894
a(I-65
I2035
tp4895
a(I-65
I2036
tp4896
a(I-90
I2037
tp4897
a(I-85
I2038
tp4898
a(I-40
I2039
tp4899
a(I-95
I2040
tp4900
a(I-75
I2041
tp4901
a(I-65
I2042
tp4902
a(I-50
I2043
tp4903
a(I-45
I2044
tp4904
a(I-90
I2045
tp4905
a(I-60
I2046
tp4906
a(I-70
I2047
tp4907
a(I-60
I2048
tp4908
a(I-80
I2049
tp4909
a(I-45
I2050
tp4910
a(I-65
I2051
tp4911
a(I-40
I2052
tp4912
a(I-155
I2053
tp4913
a(I-80
I2054
tp4914
a(I-95
I2055
tp4915
a(I-70
I2056
tp4916
a(I-60
I2057
tp4917
a(I-60
I2058
tp4918
a(I-60
I2059
tp4919
a(I-45
I2060
tp4920
a(I-55
I2061
tp4921
a(I-60
I2062
tp4922
a(I-70
I2063
tp4923
a(I-50
I2064
tp4924
a(I-80
I2065
tp4925
a(I-40
I2066
tp4926
a(I-65
I2067
tp4927
a(I-45
I2068
tp4928
a(I-55
I2069
tp4929
a(I-70
I2070
tp4930
a(I-70
I2071
tp4931
a(I-105
I2072
tp4932
a(I-55
I2073
tp4933
a(I-60
I2074
tp4934
a(I-60
I2075
tp4935
a(I-55
I2076
tp4936
a(I-95
I2077
tp4937
a(I-65
I2078
tp4938
a(I-70
I2079
tp4939
a(I-55
I2080
tp4940
a(I-85
I2081
tp4941
a(I-105
I2082
tp4942
a(I-50
I2083
tp4943
a(I-45
I2084
tp4944
a(I-55
I2085
tp4945
a(I-40
I2086
tp4946
a(I-115
I2087
tp4947
a(I-40
I2088
tp4948
a(I-50
I2089
tp4949
a(I-40
I2090
tp4950
a(I-65
I2091
tp4951
a(I-45
I2092
tp4952
a(I-40
I2093
tp4953
a(I-70
I2094
tp4954
a(I-60
I2095
tp4955
a(I-100
I2096
tp4956
a(I-40
I2097
tp4957
a(I-65
I2098
tp4958
a(I-60
I2099
tp4959
a(I-50
I2100
tp4960
a(I-60
I2101
tp4961
a(I-185
I2102
tp4962
a(I-45
I2103
tp4963
a(I-40
I2104
tp4964
a(I-60
I2105
tp4965
a(I-70
I2106
tp4966
a(I-40
I2107
tp4967
a(I-50
I2108
tp4968
a(I-60
I2109
tp4969
a(I-65
I2110
tp4970
a(I-60
I2111
tp4971
a(I-40
I2112
tp4972
a(I-60
I2113
tp4973
a(I-40
I2114
tp4974
a(I-100
I2115
tp4975
a(I-240
I2116
tp4976
a(I-50
I2117
tp4977
a(I-40
I2118
tp4978
a(I-60
I2119
tp4979
a(I-50
I2120
tp4980
a(I-80
I2121
tp4981
a(I-50
I2122
tp4982
a(I-70
I2123
tp4983
a(I-80
I2124
tp4984
a(I-45
I2125
tp4985
a(I-40
I2126
tp4986
a(I-50
I2127
tp4987
a(I-45
I2128
tp4988
a(I-80
I2129
tp4989
a(I-60
I2130
tp4990
a(I-45
I2131
tp4991
a(I-50
I2132
tp4992
a(I-60
I2133
tp4993
a(I-40
I2134
tp4994
a(I-70
I2135
tp4995
a(I-85
I2136
tp4996
a(I-50
I2137
tp4997
a(I-40
I2138
tp4998
a(I-80
I2139
tp4999
a(I-85
I2140
tp5000
a(I-65
I2141
tp5001
a(I-70
I2142
tp5002
a(I-50
I2143
tp5003
a(I-40
I2144
tp5004
a(I-335
I2145
tp5005
a(I-40
I2146
tp5006
a(I-55
I2147
tp5007
a(I-60
I2148
tp5008
a(I-40
I2149
tp5009
a(I-50
I2150
tp5010
a(I-60
I2151
tp5011
a(I-230
I2152
tp5012
a(I-65
I2153
tp5013
a(I-40
I2154
tp5014
a(I-90
I2155
tp5015
a(I-90
I2156
tp5016
a(I-65
I2157
tp5017
a(I-95
I2158
tp5018
a(I-80
I2159
tp5019
a(I-70
I2160
tp5020
a(I-45
I2161
tp5021
a(I-55
I2162
tp5022
a(I-40
I2163
tp5023
a(I-75
I2164
tp5024
a(I-70
I2165
tp5025
a(I-100
I2166
tp5026
a(I-60
I2167
tp5027
a(I-80
I2168
tp5028
a(I-60
I2169
tp5029
a(I-90
I2170
tp5030
a(I-75
I2171
tp5031
a(I-70
I2172
tp5032
a(I-85
I2173
tp5033
a(I-50
I2174
tp5034
a(I-45
I2175
tp5035
a(I-75
I2176
tp5036
a(I-70
I2177
tp5037
a(I-85
I2178
tp5038
a(I-55
I2179
tp5039
a(I-70
I2180
tp5040
a(I-40
I2181
tp5041
a(I-80
I2182
tp5042
a(I-40
I2183
tp5043
a(I-45
I2184
tp5044
a(I-110
I2185
tp5045
a(I-50
I2186
tp5046
a(I-570
I2187
tp5047
a(I-50
I2188
tp5048
a(I-55
I2189
tp5049
a(I-80
I2190
tp5050
a(I-55
I2191
tp5051
a(I-60
I2192
tp5052
a(I-40
I2193
tp5053
a(I-70
I2194
tp5054
a(I-65
I2195
tp5055
a(I-40
I2196
tp5056
a(I-60
I2197
tp5057
a(I-40
I2198
tp5058
a(I-45
I2199
tp5059
a(I-85
I2200
tp5060
a(I-40
I2201
tp5061
a(I-80
I2202
tp5062
a(I-90
I2203
tp5063
a(I-60
I2204
tp5064
a(I-50
I2205
tp5065
a(I-145
I2206
tp5066
a(I-140
I2207
tp5067
a(I-100
I2208
tp5068
a(I-55
I2209
tp5069
a(I-75
I2210
tp5070
a(I-135
I2211
tp5071
a(I-60
I2212
tp5072
a(I-40
I2213
tp5073
a(I-80
I2214
tp5074
a(I-55
I2215
tp5075
a(I-55
I2216
tp5076
a(I-60
I2217
tp5077
a(I-90
I2218
tp5078
a(I-50
I2219
tp5079
a(I-105
I2220
tp5080
a(I-70
I2221
tp5081
a(I-40
I2222
tp5082
a(I-105
I2223
tp5083
a(I-80
I2224
tp5084
a(I-190
I2225
tp5085
a(I-70
I2226
tp5086
a(I-85
I2227
tp5087
a(I-105
I2228
tp5088
a(I-105
I2229
tp5089
a(I-60
I2230
tp5090
a(I-70
I2231
tp5091
a(I-85
I2232
tp5092
a(I-90
I2233
tp5093
a(I-60
I2234
tp5094
a(I-65
I2235
tp5095
a(I-90
I2236
tp5096
a(I-235
I2237
tp5097
a(I-165
I2238
tp5098
a(I-90
I2239
tp5099
a(I-325
I2240
tp5100
a(I-105
I2241
tp5101
a(I-65
I2242
tp5102
a(I-60
I2243
tp5103
a(I-70
I2244
tp5104
a(I-50
I2245
tp5105
a(I-65
I2246
tp5106
a(I-70
I2247
tp5107
a(I-55
I2248
tp5108
a(I-60
I2249
tp5109
a(I-55
I2250
tp5110
a(I-70
I2251
tp5111
a(I-55
I2252
tp5112
a(I-60
I2253
tp5113
a(I-70
I2254
tp5114
a(I-60
I2255
tp5115
a(I-90
I2256
tp5116
a(I-45
I2257
tp5117
a(I-80
I2258
tp5118
a(I-75
I2259
tp5119
a(I-65
I2260
tp5120
a(I-85
I2261
tp5121
a(I-80
I2262
tp5122
a(I-75
I2263
tp5123
a(I-65
I2264
tp5124
a(I-45
I2265
tp5125
a(I-55
I2266
tp5126
a(I-40
I2267
tp5127
a(I-95
I2268
tp5128
a(I-40
I2269
tp5129
a(I-95
I2270
tp5130
a(I-45
I2271
tp5131
a(I-55
I2272
tp5132
a(I-50
I2273
tp5133
a(I-40
I2274
tp5134
a(I-70
I2275
tp5135
a(I-50
I2276
tp5136
a(I-40
I2277
tp5137
a(I-40
I2278
tp5138
a(I-90
I2279
tp5139
a(I-60
I2280
tp5140
a(I-50
I2281
tp5141
a(I-40
I2282
tp5142
a(I-85
I2283
tp5143
a(I-120
I2284
tp5144
a(I-60
I2285
tp5145
a(I-60
I2286
tp5146
a(I-100
I2287
tp5147
a(I-60
I2288
tp5148
a(I-90
I2289
tp5149
a(I-95
I2290
tp5150
a(I-40
I2291
tp5151
a(I-40
I2292
tp5152
a(I-70
I2293
tp5153
a(I-135
I2294
tp5154
a(I-85
I2295
tp5155
a(I-145
I2296
tp5156
a(I-105
I2297
tp5157
a(I-100
I2298
tp5158
a(I-90
I2299
tp5159
a(I-85
I2300
tp5160
a(I-130
I2301
tp5161
a(I-90
I2302
tp5162
a(I-90
I2303
tp5163
a(I-115
I2304
tp5164
a(I-110
I2305
tp5165
a(I-90
I2306
tp5166
a(I-95
I2307
tp5167
a(I-65
I2308
tp5168
a(I-65
I2309
tp5169
a(I-60
I2310
tp5170
a(I-55
I2311
tp5171
a(I-130
I2312
tp5172
a(I-55
I2313
tp5173
a(I-55
I2314
tp5174
a(I-40
I2315
tp5175
a(I-90
I2316
tp5176
a(I-210
I2317
tp5177
a(I-40
I2318
tp5178
a(I-200
I2319
tp5179
a(I-40
I2320
tp5180
a(I-90
I2321
tp5181
a(I-40
I2322
tp5182
a(I-40
I2323
tp5183
a(I-40
I2324
tp5184
a(I-75
I2325
tp5185
a(I-65
I2326
tp5186
a(I-40
I2327
tp5187
a(I-100
I2328
tp5188
a(I-50
I2329
tp5189
a(I-100
I2330
tp5190
a(I-75
I2331
tp5191
a(I-80
I2332
tp5192
a(I-110
I2333
tp5193
a(I-145
I2334
tp5194
a(I-105
I2335
tp5195
a(I-65
I2336
tp5196
a(I-45
I2337
tp5197
a(I-100
I2338
tp5198
a(I-115
I2339
tp5199
a(I-50
I2340
tp5200
a(I-170
I2341
tp5201
a(I-70
I2342
tp5202
a(I-125
I2343
tp5203
a(I-390
I2344
tp5204
a(I-120
I2345
tp5205
a(I-90
I2346
tp5206
a(I-45
I2347
tp5207
a(I-90
I2348
tp5208
a(I-45
I2349
tp5209
a(I-65
I2350
tp5210
a(I-85
I2351
tp5211
a(I-165
I2352
tp5212
a(I-110
I2353
tp5213
a(I-105
I2354
tp5214
a(I-50
I2355
tp5215
a(I-170
I2356
tp5216
a(I-165
I2357
tp5217
a(I-65
I2358
tp5218
a(I-105
I2359
tp5219
a(I-75
I2360
tp5220
a(I-120
I2361
tp5221
a(I-60
I2362
tp5222
a(I-40
I2363
tp5223
a(I-40
I2364
tp5224
a(I-45
I2365
tp5225
a(I-40
I2366
tp5226
a(I-40
I2367
tp5227
a(I-50
I2368
tp5228
a(I-65
I2369
tp5229
a(I-75
I2370
tp5230
a(I-110
I2371
tp5231
a(I-55
I2372
tp5232
a(I-60
I2373
tp5233
a(I-85
I2374
tp5234
a(I-40
I2375
tp5235
a(I-120
I2376
tp5236
a(I-70
I2377
tp5237
a(I-210
I2378
tp5238
a(I-100
I2379
tp5239
a(I-145
I2380
tp5240
a(I-60
I2381
tp5241
a(I-40
I2382
tp5242
a(I-70
I2383
tp5243
a(I-70
I2384
tp5244
a(I-65
I2385
tp5245
a(I-60
I2386
tp5246
a(I-70
I2387
tp5247
a(I-65
I2388
tp5248
a(I-65
I2389
tp5249
a(I-40
I2390
tp5250
a(I-55
I2391
tp5251
a(I-75
I2392
tp5252
a(I-100
I2393
tp5253
a(I-40
I2394
tp5254
a(I-60
I2395
tp5255
a(I-70
I2396
tp5256
a(I-80
I2397
tp5257
a(I-60
I2398
tp5258
a(I-40
I2399
tp5259
a(I-60
I2400
tp5260
a(I-100
I2401
tp5261
a(I-70
I2402
tp5262
a(I-60
I2403
tp5263
a(I-70
I2404
tp5264
a(I-55
I2405
tp5265
a(I-60
I2406
tp5266
a(I-80
I2407
tp5267
a(I-70
I2408
tp5268
a(I-70
I2409
tp5269
a(I-100
I2410
tp5270
a(I-70
I2411
tp5271
a(I-70
I2412
tp5272
a(I-75
I2413
tp5273
a(I-40
I2414
tp5274
a(I-55
I2415
tp5275
a(I-60
I2416
tp5276
a(I-60
I2417
tp5277
a(I-90
I2418
tp5278
a(I-65
I2419
tp5279
a(I-50
I2420
tp5280
a(I-55
I2421
tp5281
a(I-60
I2422
tp5282
a(I-45
I2423
tp5283
a(I-30
I2424
tp5284
a(I-60
I2425
tp5285
a(I-30
I2426
tp5286
a(I-45
I2427
tp5287
a(I-45
I2428
tp5288
a(I-50
I2429
tp5289
a(I-45
I2430
tp5290
a(I-85
I2431
tp5291
a(I-30
I2432
tp5292
a(I-45
I2433
tp5293
a(I-80
I2434
tp5294
a(I-45
I2435
tp5295
a(I-45
I2436
tp5296
a(I-45
I2437
tp5297
a(I-40
I2438
tp5298
a(I-45
I2439
tp5299
a(I-45
I2440
tp5300
a(I-45
I2441
tp5301
a(I-110
I2442
tp5302
a(I-65
I2443
tp5303
a(I-100
I2444
tp5304
a(I-60
I2445
tp5305
a(I-75
I2446
tp5306
a(I-30
I2447
tp5307
a(I-100
I2448
tp5308
a(I-75
I2449
tp5309
a(I-70
I2450
tp5310
a(I-40
I2451
tp5311
a(I-50
I2452
tp5312
a(I-40
I2453
tp5313
a(I-45
I2454
tp5314
a(I-50
I2455
tp5315
a(I-40
I2456
tp5316
a(I-75
I2457
tp5317
a(I-40
I2458
tp5318
a(I-40
I2459
tp5319
a(I-50
I2460
tp5320
a(I-40
I2461
tp5321
a(I-50
I2462
tp5322
a(I-50
I2463
tp5323
a(I-205
I2464
tp5324
a(I-100
I2465
tp5325
a(I-50
I2466
tp5326
a(I-55
I2467
tp5327
a(I-65
I2468
tp5328
a(I-65
I2469
tp5329
a(I-55
I2470
tp5330
a(I-50
I2471
tp5331
a(I-65
I2472
tp5332
a(I-65
I2473
tp5333
a(I-50
I2474
tp5334
a(I-60
I2475
tp5335
a(I-130
I2476
tp5336
a(I-250
I2477
tp5337
a(I-45
I2478
tp5338
a(I-65
I2479
tp5339
a(I-60
I2480
tp5340
a(I-65
I2481
tp5341
a(I-90
I2482
tp5342
a(I-75
I2483
tp5343
a(I-70
I2484
tp5344
a(I-40
I2485
tp5345
a(I-65
I2486
tp5346
a(I-55
I2487
tp5347
a(I-60
I2488
tp5348
a(I-40
I2489
tp5349
a(I-50
I2490
tp5350
a(I-65
I2491
tp5351
a(I-60
I2492
tp5352
a(I-135
I2493
tp5353
a(I-60
I2494
tp5354
a(I-75
I2495
tp5355
a(I-70
I2496
tp5356
a(I-40
I2497
tp5357
a(I-45
I2498
tp5358
a(I-50
I2499
tp5359
a(I-50
I2500
tp5360
a(I-40
I2501
tp5361
a(I-70
I2502
tp5362
a(I-50
I2503
tp5363
a(I-70
I2504
tp5364
a(I-50
I2505
tp5365
a(I-60
I2506
tp5366
a(I-75
I2507
tp5367
a(I-40
I2508
tp5368
a(I-80
I2509
tp5369
a(I-65
I2510
tp5370
a(I-60
I2511
tp5371
a(I-75
I2512
tp5372
a(I-50
I2513
tp5373
a(I-60
I2514
tp5374
a(I-30
I2515
tp5375
a(I-30
I2516
tp5376
a(I-30
I2517
tp5377
a(I-30
I2518
tp5378
a(I-30
I2519
tp5379
a(I-30
I2520
tp5380
a(I-30
I2521
tp5381
a(I-30
I2522
tp5382
a(I-55
I2523
tp5383
a(I-45
I2524
tp5384
a(I-50
I2525
tp5385
a(I-40
I2526
tp5386
a(I-85
I2527
tp5387
a(I-120
I2528
tp5388
a(I-120
I2529
tp5389
a(I-90
I2530
tp5390
a(I-60
I2531
tp5391
a(I-60
I2532
tp5392
a(I-60
I2533
tp5393
a(I-35
I2534
tp5394
a(I-125
I2535
tp5395
a(I-65
I2536
tp5396
a(I-70
I2537
tp5397
a(I-95
I2538
tp5398
a(I-80
I2539
tp5399
a(I-80
I2540
tp5400
a(I-55
I2541
tp5401
a(I-45
I2542
tp5402
a(I-85
I2543
tp5403
a(I-60
I2544
tp5404
a(I-110
I2545
tp5405
a(I-30
I2546
tp5406
a(I-30
I2547
tp5407
a(I-30
I2548
tp5408
a(I-30
I2549
tp5409
a(I-35
I2550
tp5410
a(I-30
I2551
tp5411
a(I-95
I2552
tp5412
a(I-250
I2553
tp5413
a(I-70
I2554
tp5414
a(I-30
I2555
tp5415
a(I-30
I2556
tp5416
a(I-70
I2557
tp5417
a(I-130
I2558
tp5418
a(I-30
I2559
tp5419
a(I-30
I2560
tp5420
a(I-30
I2561
tp5421
a(I-30
I2562
tp5422
a(I-30
I2563
tp5423
a(I-45
I2564
tp5424
a(I-55
I2565
tp5425
a(I-75
I2566
tp5426
a(I-170
I2567
tp5427
a(I-30
I2568
tp5428
a(I-30
I2569
tp5429
a(I-30
I2570
tp5430
a(I-30
I2571
tp5431
a(I-30
I2572
tp5432
a(I-30
I2573
tp5433
a(I-30
I2574
tp5434
a(I-40
I2575
tp5435
a(I-90
I2576
tp5436
a(I-80
I2577
tp5437
a(I-70
I2578
tp5438
a(I-30
I2579
tp5439
a(I-30
I2580
tp5440
a(I-30
I2581
tp5441
a(I-30
I2582
tp5442
a(I-30
I2583
tp5443
a(I-30
I2584
tp5444
a(I-65
I2585
tp5445
a(I-30
I2586
tp5446
a(I-30
I2587
tp5447
a(I-30
I2588
tp5448
a(I-30
I2589
tp5449
a(I-30
I2590
tp5450
a(I-65
I2591
tp5451
a(I-75
I2592
tp5452
a(I-65
I2593
tp5453
a(I-120
I2594
tp5454
a(I-135
I2595
tp5455
a(I-60
I2596
tp5456
a(I-65
I2597
tp5457
a(I-190
I2598
tp5458
a(I-90
I2599
tp5459
a(I-60
I2600
tp5460
a(I-40
I2601
tp5461
a(I-45
I2602
tp5462
a(I-90
I2603
tp5463
a(I-75
I2604
tp5464
a(I-65
I2605
tp5465
a(I-65
I2606
tp5466
a(I-80
I2607
tp5467
a(I-50
I2608
tp5468
a(I-55
I2609
tp5469
a(I-90
I2610
tp5470
a(I-90
I2611
tp5471
a(I-70
I2612
tp5472
a(I-60
I2613
tp5473
a(I-60
I2614
tp5474
a(I-70
I2615
tp5475
a(I-60
I2616
tp5476
a(I-70
I2617
tp5477
a(I-135
I2618
tp5478
a(I-45
I2619
tp5479
a(I-55
I2620
tp5480
a(I-160
I2621
tp5481
a(I-170
I2622
tp5482
a(I-60
I2623
tp5483
a(I-105
I2624
tp5484
a(I-65
I2625
tp5485
a(I-80
I2626
tp5486
a(I-65
I2627
tp5487
a(I-40
I2628
tp5488
a(I-70
I2629
tp5489
a(I-60
I2630
tp5490
a(I-60
I2631
tp5491
a(I-40
I2632
tp5492
a(I-40
I2633
tp5493
a(I-190
I2634
tp5494
a(I-40
I2635
tp5495
a(I-65
I2636
tp5496
a(I-45
I2637
tp5497
a(I-60
I2638
tp5498
a(I-45
I2639
tp5499
a(I-60
I2640
tp5500
a(I-45
I2641
tp5501
a(I-45
I2642
tp5502
a(I-60
I2643
tp5503
a(I-80
I2644
tp5504
a(I-50
I2645
tp5505
a(I-50
I2646
tp5506
a(I-40
I2647
tp5507
a(I-50
I2648
tp5508
a(I-50
I2649
tp5509
a(I-40
I2650
tp5510
a(I-65
I2651
tp5511
a(I-50
I2652
tp5512
a(I-305
I2653
tp5513
a(I-80
I2654
tp5514
a(I-100
I2655
tp5515
a(I-70
I2656
tp5516
a(I-50
I2657
tp5517
a(I-50
I2658
tp5518
a(I-50
I2659
tp5519
a(I-50
I2660
tp5520
a(I-50
I2661
tp5521
a(I-60
I2662
tp5522
a(I-65
I2663
tp5523
a(I-70
I2664
tp5524
a(I-60
I2665
tp5525
a(I-70
I2666
tp5526
a(I-70
I2667
tp5527
a(I-70
I2668
tp5528
a(I-50
I2669
tp5529
a(I-90
I2670
tp5530
a(I-60
I2671
tp5531
a(I-80
I2672
tp5532
a(I-70
I2673
tp5533
a(I-70
I2674
tp5534
a(I-110
I2675
tp5535
a(I-85
I2676
tp5536
a(I-65
I2677
tp5537
a(I-60
I2678
tp5538
a(I-60
I2679
tp5539
a(I-50
I2680
tp5540
a(I-60
I2681
tp5541
a(I-90
I2682
tp5542
a(I-65
I2683
tp5543
a(I-150
I2684
tp5544
a(I-50
I2685
tp5545
a(I-55
I2686
tp5546
a(I-65
I2687
tp5547
a(I-60
I2688
tp5548
a(I-60
I2689
tp5549
a(I-170
I2690
tp5550
a(I-60
I2691
tp5551
a(I-70
I2692
tp5552
a(I-85
I2693
tp5553
a(I-60
I2694
tp5554
a(I-75
I2695
tp5555
a(I-80
I2696
tp5556
a(I-40
I2697
tp5557
a(I-40
I2698
tp5558
a(I-50
I2699
tp5559
a(I-60
I2700
tp5560
a(I-90
I2701
tp5561
a(I-60
I2702
tp5562
a(I-60
I2703
tp5563
a(I-40
I2704
tp5564
a(I-75
I2705
tp5565
a(I-45
I2706
tp5566
a(I-90
I2707
tp5567
a(I-40
I2708
tp5568
a(I-80
I2709
tp5569
a(I-40
I2710
tp5570
a(I-50
I2711
tp5571
a(I-50
I2712
tp5572
a(I-45
I2713
tp5573
a(I-90
I2714
tp5574
a(I-50
I2715
tp5575
a(I-70
I2716
tp5576
a(I-55
I2717
tp5577
a(I-40
I2718
tp5578
a(I-130
I2719
tp5579
a(I-105
I2720
tp5580
a(I-40
I2721
tp5581
a(I-70
I2722
tp5582
a(I-60
I2723
tp5583
a(I-40
I2724
tp5584
a(I-65
I2725
tp5585
a(I-320
I2726
tp5586
a(I-75
I2727
tp5587
a(I-60
I2728
tp5588
a(I-50
I2729
tp5589
a(I-45
I2730
tp5590
a(I-70
I2731
tp5591
a(I-60
I2732
tp5592
a(I-40
I2733
tp5593
a(I-50
I2734
tp5594
a(I-40
I2735
tp5595
a(I-70
I2736
tp5596
a(I-40
I2737
tp5597
a(I-40
I2738
tp5598
a(I-50
I2739
tp5599
a(I-45
I2740
tp5600
a(I-40
I2741
tp5601
a(I-50
I2742
tp5602
a(I-45
I2743
tp5603
a(I-75
I2744
tp5604
a(I-50
I2745
tp5605
a(I-60
I2746
tp5606
a(I-70
I2747
tp5607
a(I-55
I2748
tp5608
a(I-45
I2749
tp5609
a(I-110
I2750
tp5610
a(I-60
I2751
tp5611
a(I-65
I2752
tp5612
a(I-165
I2753
tp5613
a(I-45
I2754
tp5614
a(I-65
I2755
tp5615
a(I-145
I2756
tp5616
a(I-55
I2757
tp5617
a(I-275
I2758
tp5618
a(I-115
I2759
tp5619
a(I-55
I2760
tp5620
a(I-95
I2761
tp5621
a(I-75
I2762
tp5622
a(I-40
I2763
tp5623
a(I-40
I2764
tp5624
a(I-65
I2765
tp5625
a(I-50
I2766
tp5626
a(I-60
I2767
tp5627
a(I-40
I2768
tp5628
a(I-175
I2769
tp5629
a(I-55
I2770
tp5630
a(I-55
I2771
tp5631
a(I-50
I2772
tp5632
a(I-120
I2773
tp5633
a(I-40
I2774
tp5634
a(I-95
I2775
tp5635
a(I-45
I2776
tp5636
a(I-280
I2777
tp5637
a(I-160
I2778
tp5638
a(I-90
I2779
tp5639
a(I-40
I2780
tp5640
a(I-45
I2781
tp5641
a(I-50
I2782
tp5642
a(I-50
I2783
tp5643
a(I-115
I2784
tp5644
a(I-40
I2785
tp5645
a(I-45
I2786
tp5646
a(I-60
I2787
tp5647
a(I-70
I2788
tp5648
a(I-105
I2789
tp5649
a(I-65
I2790
tp5650
a(I-70
I2791
tp5651
a(I-75
I2792
tp5652
a(I-50
I2793
tp5653
a(I-50
I2794
tp5654
a(I-70
I2795
tp5655
a(I-70
I2796
tp5656
a(I-60
I2797
tp5657
a(I-50
I2798
tp5658
a(I-60
I2799
tp5659
a(I-95
I2800
tp5660
a(I-65
I2801
tp5661
a(I-50
I2802
tp5662
a(I-65
I2803
tp5663
a(I-55
I2804
tp5664
a(I-145
I2805
tp5665
a(I-75
I2806
tp5666
a(I-175
I2807
tp5667
a(I-110
I2808
tp5668
a(I-60
I2809
tp5669
a(I-120
I2810
tp5670
a(I-130
I2811
tp5671
a(I-100
I2812
tp5672
a(I-110
I2813
tp5673
a(I-95
I2814
tp5674
a(I-90
I2815
tp5675
a(I-165
I2816
tp5676
a(I-45
I2817
tp5677
a(I-50
I2818
tp5678
a(I-60
I2819
tp5679
a(I-60
I2820
tp5680
a(I-100
I2821
tp5681
a(I-80
I2822
tp5682
a(I-115
I2823
tp5683
a(I-90
I2824
tp5684
a(I-60
I2825
tp5685
a(I-130
I2826
tp5686
a(I-160
I2827
tp5687
a(I-180
I2828
tp5688
a(I-200
I2829
tp5689
a(I-145
I2830
tp5690
a(I-90
I2831
tp5691
a(I-105
I2832
tp5692
a(I-70
I2833
tp5693
a(I-40
I2834
tp5694
a(I-105
I2835
tp5695
a(I-255
I2836
tp5696
a(I-65
I2837
tp5697
a(I-225
I2838
tp5698
a(I-50
I2839
tp5699
a(I-45
I2840
tp5700
a(I-110
I2841
tp5701
a(I-80
I2842
tp5702
a(I-40
I2843
tp5703
a(I-60
I2844
tp5704
a(I-65
I2845
tp5705
a(I-70
I2846
tp5706
a(I-65
I2847
tp5707
a(I-85
I2848
tp5708
a(I-70
I2849
tp5709
a(I-115
I2850
tp5710
a(I-175
I2851
tp5711
a(I-80
I2852
tp5712
a(I-60
I2853
tp5713
a(I-55
I2854
tp5714
a(I-110
I2855
tp5715
a(I-110
I2856
tp5716
a(I-75
I2857
tp5717
a(I-170
I2858
tp5718
a(I-70
I2859
tp5719
a(I-50
I2860
tp5720
a(I-40
I2861
tp5721
a(I-65
I2862
tp5722
a(I-95
I2863
tp5723
a(I-65
I2864
tp5724
a(I-55
I2865
tp5725
a(I-65
I2866
tp5726
a(I-60
I2867
tp5727
a(I-80
I2868
tp5728
a(I-50
I2869
tp5729
a(I-90
I2870
tp5730
a(I-80
I2871
tp5731
a(I-60
I2872
tp5732
a(I-55
I2873
tp5733
a(I-50
I2874
tp5734
a(I-45
I2875
tp5735
a(I-55
I2876
tp5736
a(I-70
I2877
tp5737
a(I-60
I2878
tp5738
a(I-70
I2879
tp5739
a(I-50
I2880
tp5740
a(I-40
I2881
tp5741
a(I-45
I2882
tp5742
a(I-85
I2883
tp5743
a(I-45
I2884
tp5744
a(I-70
I2885
tp5745
a(I-40
I2886
tp5746
a(I-65
I2887
tp5747
a(I-50
I2888
tp5748
a(I-40
I2889
tp5749
a(I-60
I2890
tp5750
a(I-50
I2891
tp5751
a(I-40
I2892
tp5752
a(I-40
I2893
tp5753
a(I-55
I2894
tp5754
a(I-110
I2895
tp5755
a(I-50
I2896
tp5756
a(I-50
I2897
tp5757
a(I-65
I2898
tp5758
a(I-60
I2899
tp5759
a(I-65
I2900
tp5760
a(I-60
I2901
tp5761
a(I-55
I2902
tp5762
a(I-50
I2903
tp5763
a(I-85
I2904
tp5764
a(I-50
I2905
tp5765
a(I-40
I2906
tp5766
a(I-95
I2907
tp5767
a(I-40
I2908
tp5768
a(I-40
I2909
tp5769
a(I-85
I2910
tp5770
a(I-60
I2911
tp5771
a(I-100
I2912
tp5772
a(I-60
I2913
tp5773
a(I-40
I2914
tp5774
a(I-65
I2915
tp5775
a(I-50
I2916
tp5776
a(I-45
I2917
tp5777
a(I-50
I2918
tp5778
a(I-60
I2919
tp5779
a(I-40
I2920
tp5780
a(I-55
I2921
tp5781
a(I-80
I2922
tp5782
a(I-40
I2923
tp5783
a(I-75
I2924
tp5784
a(I-50
I2925
tp5785
a(I-55
I2926
tp5786
a(I-90
I2927
tp5787
a(I-85
I2928
tp5788
a(I-110
I2929
tp5789
a(I-330
I2930
tp5790
a(I-470
I2931
tp5791
a(I-115
I2932
tp5792
a(I-65
I2933
tp5793
a(I-45
I2934
tp5794
a(I-215
I2935
tp5795
a(I-45
I2936
tp5796
a(I-60
I2937
tp5797
a(I-60
I2938
tp5798
a(I-50
I2939
tp5799
a(I-85
I2940
tp5800
a(I-85
I2941
tp5801
a(I-65
I2942
tp5802
a(I-75
I2943
tp5803
a(I-60
I2944
tp5804
a(I-50
I2945
tp5805
a(I-45
I2946
tp5806
a(I-50
I2947
tp5807
a(I-60
I2948
tp5808
a(I-120
I2949
tp5809
a(I-40
I2950
tp5810
a(I-55
I2951
tp5811
a(I-115
I2952
tp5812
a(I-45
I2953
tp5813
a(I-80
I2954
tp5814
a(I-70
I2955
tp5815
a(I-60
I2956
tp5816
a(I-40
I2957
tp5817
a(I-40
I2958
tp5818
a(I-70
I2959
tp5819
a(I-50
I2960
tp5820
a(I-40
I2961
tp5821
a(I-40
I2962
tp5822
a(I-40
I2963
tp5823
a(I-40
I2964
tp5824
a(I-90
I2965
tp5825
a(I-40
I2966
tp5826
a(I-75
I2967
tp5827
a(I-50
I2968
tp5828
a(I-40
I2969
tp5829
a(I-50
I2970
tp5830
a(I-40
I2971
tp5831
a(I-85
I2972
tp5832
a(I-50
I2973
tp5833
a(I-55
I2974
tp5834
a(I-40
I2975
tp5835
a(I-150
I2976
tp5836
a(I-80
I2977
tp5837
a(I-80
I2978
tp5838
a(I-50
I2979
tp5839
a(I-90
I2980
tp5840
a(I-40
I2981
tp5841
a(I-50
I2982
tp5842
a(I-65
I2983
tp5843
a(I-60
I2984
tp5844
a(I-55
I2985
tp5845
a(I-70
I2986
tp5846
a(I-45
I2987
tp5847
a(I-100
I2988
tp5848
a(I-80
I2989
tp5849
a(I-105
I2990
tp5850
a(I-95
I2991
tp5851
a(I-60
I2992
tp5852
a(I-90
I2993
tp5853
a(I-65
I2994
tp5854
a(I-75
I2995
tp5855
a(I-65
I2996
tp5856
a(I-45
I2997
tp5857
a(I-60
I2998
tp5858
a(I-65
I2999
tp5859
a(I-70
I3000
tp5860
a(I-60
I3001
tp5861
a(I-60
I3002
tp5862
a(I-90
I3003
tp5863
a(I-135
I3004
tp5864
a(I-105
I3005
tp5865
a(I-85
I3006
tp5866
a(I-55
I3007
tp5867
a(I-65
I3008
tp5868
a(I-60
I3009
tp5869
a(I-55
I3010
tp5870
a(I-55
I3011
tp5871
a(I-40
I3012
tp5872
a(I-50
I3013
tp5873
a(I-140
I3014
tp5874
a(I-100
I3015
tp5875
a(I-75
I3016
tp5876
a(I-40
I3017
tp5877
a(I-70
I3018
tp5878
a(I-65
I3019
tp5879
a(I-40
I3020
tp5880
a(I-95
I3021
tp5881
a(I-40
I3022
tp5882
a(I-125
I3023
tp5883
a(I-85
I3024
tp5884
a(I-50
I3025
tp5885
a(I-80
I3026
tp5886
a(I-40
I3027
tp5887
a(I-40
I3028
tp5888
a(I-100
I3029
tp5889
a(I-100
I3030
tp5890
a(I-50
I3031
tp5891
a(I-180
I3032
tp5892
a(I-55
I3033
tp5893
a(I-60
I3034
tp5894
a(I-115
I3035
tp5895
a(I-90
I3036
tp5896
a(I-90
I3037
tp5897
a(I-70
I3038
tp5898
a(I-235
I3039
tp5899
a(I-190
I3040
tp5900
a(I-70
I3041
tp5901
a(I-90
I3042
tp5902
a(I-65
I3043
tp5903
a(I-135
I3044
tp5904
a(I-285
I3045
tp5905
a(I-65
I3046
tp5906
a(I-40
I3047
tp5907
a(I-70
I3048
tp5908
a(I-50
I3049
tp5909
a(I-55
I3050
tp5910
a(I-135
I3051
tp5911
a(I-65
I3052
tp5912
a(I-45
I3053
tp5913
a(I-90
I3054
tp5914
a(I-70
I3055
tp5915
a(I-90
I3056
tp5916
a(I-50
I3057
tp5917
a(I-70
I3058
tp5918
a(I-40
I3059
tp5919
a(I-40
I3060
tp5920
a(I-40
I3061
tp5921
a(I-45
I3062
tp5922
a(I-40
I3063
tp5923
a(I-45
I3064
tp5924
a(I-60
I3065
tp5925
a(I-40
I3066
tp5926
a(I-40
I3067
tp5927
a(I-85
I3068
tp5928
a(I-130
I3069
tp5929
a(I-50
I3070
tp5930
a(I-40
I3071
tp5931
a(I-40
I3072
tp5932
a(I-75
I3073
tp5933
a(I-70
I3074
tp5934
a(I-60
I3075
tp5935
a(I-95
I3076
tp5936
a(I-45
I3077
tp5937
a(I-80
I3078
tp5938
a(I-40
I3079
tp5939
a(I-155
I3080
tp5940
a(I-40
I3081
tp5941
a(I-40
I3082
tp5942
a(I-40
I3083
tp5943
a(I-45
I3084
tp5944
a(I-40
I3085
tp5945
a(I-40
I3086
tp5946
a(I-40
I3087
tp5947
a(I-55
I3088
tp5948
a(I-50
I3089
tp5949
a(I-40
I3090
tp5950
a(I-40
I3091
tp5951
a(I-40
I3092
tp5952
a(I-50
I3093
tp5953
a(I-165
I3094
tp5954
a(I-55
I3095
tp5955
a(I-50
I3096
tp5956
a(I-50
I3097
tp5957
a(I-75
I3098
tp5958
a(I-50
I3099
tp5959
a(I-85
I3100
tp5960
a(I-55
I3101
tp5961
a(I-50
I3102
tp5962
a(I-175
I3103
tp5963
a(I-130
I3104
tp5964
a(I-110
I3105
tp5965
a(I-105
I3106
tp5966
a(I-60
I3107
tp5967
a(I-50
I3108
tp5968
a(I-50
I3109
tp5969
a(I-60
I3110
tp5970
a(I-50
I3111
tp5971
a(I-50
I3112
tp5972
a(I-70
I3113
tp5973
a(I-50
I3114
tp5974
a(I-50
I3115
tp5975
a(I-70
I3116
tp5976
a(I-80
I3117
tp5977
a(I-110
I3118
tp5978
a(I-70
I3119
tp5979
a(I-40
I3120
tp5980
a(I-45
I3121
tp5981
a(I-80
I3122
tp5982
a(I-50
I3123
tp5983
a(I-45
I3124
tp5984
a(I-60
I3125
tp5985
a(I-85
I3126
tp5986
a(I-80
I3127
tp5987
a(I-150
I3128
tp5988
a(I-70
I3129
tp5989
a(I-45
I3130
tp5990
a(I-90
I3131
tp5991
a(I-45
I3132
tp5992
a(I-65
I3133
tp5993
a(I-45
I3134
tp5994
a(I-45
I3135
tp5995
a(I-45
I3136
tp5996
a(I-45
I3137
tp5997
a(I-100
I3138
tp5998
a(I-85
I3139
tp5999
a(I-135
I3140
tp6000
a(I-45
I3141
tp6001
a(I-45
I3142
tp6002
a(I-45
I3143
tp6003
a(I-100
I3144
tp6004
a(I-30
I3145
tp6005
a(I-150
I3146
tp6006
a(I-65
I3147
tp6007
a(I-70
I3148
tp6008
a(I-60
I3149
tp6009
a(I-50
I3150
tp6010
a(I-75
I3151
tp6011
a(I-80
I3152
tp6012
a(I-50
I3153
tp6013
a(I-80
I3154
tp6014
a(I-40
I3155
tp6015
a(I-90
I3156
tp6016
a(I-80
I3157
tp6017
a(I-135
I3158
tp6018
a(I-50
I3159
tp6019
a(I-40
I3160
tp6020
a(I-40
I3161
tp6021
a(I-40
I3162
tp6022
a(I-110
I3163
tp6023
a(I-40
I3164
tp6024
a(I-40
I3165
tp6025
a(I-50
I3166
tp6026
a(I-80
I3167
tp6027
a(I-80
I3168
tp6028
a(I-85
I3169
tp6029
a(I-50
I3170
tp6030
a(I-75
I3171
tp6031
a(I-50
I3172
tp6032
a(I-65
I3173
tp6033
a(I-90
I3174
tp6034
a(I-90
I3175
tp6035
a(I-140
I3176
tp6036
a(I-65
I3177
tp6037
a(I-55
I3178
tp6038
a(I-75
I3179
tp6039
a(I-65
I3180
tp6040
a(I-55
I3181
tp6041
a(I-70
I3182
tp6042
a(I-70
I3183
tp6043
a(I-75
I3184
tp6044
a(I-50
I3185
tp6045
a(I-60
I3186
tp6046
a(I-70
I3187
tp6047
a(I-70
I3188
tp6048
a(I-85
I3189
tp6049
a(I-60
I3190
tp6050
a(I-170
I3191
tp6051
a(I-50
I3192
tp6052
a(I-295
I3193
tp6053
a(I-90
I3194
tp6054
a(I-110
I3195
tp6055
a(I-55
I3196
tp6056
a(I-50
I3197
tp6057
a(I-90
I3198
tp6058
a(I-85
I3199
tp6059
a(I-80
I3200
tp6060
a(I-120
I3201
tp6061
a(I-60
I3202
tp6062
a(I-70
I3203
tp6063
a(I-75
I3204
tp6064
a(I-110
I3205
tp6065
a(I-120
I3206
tp6066
a(I-85
I3207
tp6067
a(I-65
I3208
tp6068
a(I-75
I3209
tp6069
a(I-95
I3210
tp6070
a(I-65
I3211
tp6071
a(I-80
I3212
tp6072
a(I-40
I3213
tp6073
a(I-160
I3214
tp6074
a(I-80
I3215
tp6075
a(I-40
I3216
tp6076
a(I-70
I3217
tp6077
a(I-75
I3218
tp6078
a(I-60
I3219
tp6079
a(I-50
I3220
tp6080
a(I-160
I3221
tp6081
a(I-105
I3222
tp6082
a(I-110
I3223
tp6083
a(I-50
I3224
tp6084
a(I-45
I3225
tp6085
a(I-60
I3226
tp6086
a(I-80
I3227
tp6087
a(I-60
I3228
tp6088
a(I-85
I3229
tp6089
a(I-105
I3230
tp6090
a(I-95
I3231
tp6091
a(I-60
I3232
tp6092
a(I-75
I3233
tp6093
a(I-360
I3234
tp6094
a(I-70
I3235
tp6095
a(I-75
I3236
tp6096
a(I-70
I3237
tp6097
a(I-50
I3238
tp6098
a(I-40
I3239
tp6099
a(I-160
I3240
tp6100
a(I-60
I3241
tp6101
a(I-115
I3242
tp6102
a(I-145
I3243
tp6103
a(I-75
I3244
tp6104
a(I-50
I3245
tp6105
a(I-65
I3246
tp6106
a(I-55
I3247
tp6107
a(I-60
I3248
tp6108
a(I-40
I3249
tp6109
a(I-55
I3250
tp6110
a(I-125
I3251
tp6111
a(I-95
I3252
tp6112
a(I-50
I3253
tp6113
a(I-50
I3254
tp6114
a(I-70
I3255
tp6115
a(I-50
I3256
tp6116
a(I-40
I3257
tp6117
a(I-65
I3258
tp6118
a(I-40
I3259
tp6119
a(I-40
I3260
tp6120
a(I-50
I3261
tp6121
a(I-50
I3262
tp6122
a(I-55
I3263
tp6123
a(I-70
I3264
tp6124
a(I-60
I3265
tp6125
a(I-65
I3266
tp6126
a(I-60
I3267
tp6127
a(I-70
I3268
tp6128
a(I-50
I3269
tp6129
a(I-65
I3270
tp6130
a(I-40
I3271
tp6131
a(I-60
I3272
tp6132
a(I-45
I3273
tp6133
a(I-100
I3274
tp6134
a(I-95
I3275
tp6135
a(I-40
I3276
tp6136
a(I-85
I3277
tp6137
a(I-465
I3278
tp6138
a(I-105
I3279
tp6139
a(I-105
I3280
tp6140
a(I-55
I3281
tp6141
a(I-40
I3282
tp6142
a(I-60
I3283
tp6143
a(I-50
I3284
tp6144
a(I-70
I3285
tp6145
a(I-65
I3286
tp6146
a(I-45
I3287
tp6147
a(I-60
I3288
tp6148
a(I-50
I3289
tp6149
a(I-55
I3290
tp6150
a(I-40
I3291
tp6151
a(I-50
I3292
tp6152
a(I-55
I3293
tp6153
a(I-70
I3294
tp6154
a(I-75
I3295
tp6155
a(I-55
I3296
tp6156
a(I-60
I3297
tp6157
a(I-60
I3298
tp6158
a(I-60
I3299
tp6159
a(I-80
I3300
tp6160
a(I-60
I3301
tp6161
a(I-50
I3302
tp6162
a(I-60
I3303
tp6163
a(I-55
I3304
tp6164
a(I-90
I3305
tp6165
a(I-110
I3306
tp6166
a(I-100
I3307
tp6167
a(I-95
I3308
tp6168
a(I-45
I3309
tp6169
a(I-75
I3310
tp6170
a(I-75
I3311
tp6171
a(I-60
I3312
tp6172
a(I-60
I3313
tp6173
a(I-70
I3314
tp6174
a(I-55
I3315
tp6175
a(I-50
I3316
tp6176
a(I-70
I3317
tp6177
a(I-75
I3318
tp6178
a(I-45
I3319
tp6179
a(I-40
I3320
tp6180
a(I-45
I3321
tp6181
a(I-70
I3322
tp6182
a(I-185
I3323
tp6183
a(I-40
I3324
tp6184
a(I-110
I3325
tp6185
a(I-40
I3326
tp6186
a(I-60
I3327
tp6187
a(I-75
I3328
tp6188
a(I-45
I3329
tp6189
a(I-40
I3330
tp6190
a(I-70
I3331
tp6191
a(I-40
I3332
tp6192
a(I-70
I3333
tp6193
a(I-95
I3334
tp6194
a(I-55
I3335
tp6195
a(I-60
I3336
tp6196
a(I-70
I3337
tp6197
a(I-60
I3338
tp6198
a(I-65
I3339
tp6199
a(I-90
I3340
tp6200
a(I-60
I3341
tp6201
a(I-60
I3342
tp6202
a(I-60
I3343
tp6203
a(I-40
I3344
tp6204
a(I-40
I3345
tp6205
a(I-55
I3346
tp6206
a(I-80
I3347
tp6207
a(I-75
I3348
tp6208
a(I-580
I3349
tp6209
a(I-55
I3350
tp6210
a(I-55
I3351
tp6211
a(I-50
I3352
tp6212
a(I-55
I3353
tp6213
a(I-65
I3354
tp6214
a(I-50
I3355
tp6215
a(I-75
I3356
tp6216
a(I-40
I3357
tp6217
a(I-60
I3358
tp6218
a(I-45
I3359
tp6219
a(I-40
I3360
tp6220
a(I-65
I3361
tp6221
a(I-65
I3362
tp6222
a(I-65
I3363
tp6223
a(I-170
I3364
tp6224
a(I-55
I3365
tp6225
a(I-115
I3366
tp6226
a(I-125
I3367
tp6227
a(I-55
I3368
tp6228
a(I-40
I3369
tp6229
a(I-75
I3370
tp6230
a(I-100
I3371
tp6231
a(I-60
I3372
tp6232
a(I-55
I3373
tp6233
a(I-50
I3374
tp6234
a(I-60
I3375
tp6235
a(I-45
I3376
tp6236
a(I-50
I3377
tp6237
a(I-40
I3378
tp6238
a(I-65
I3379
tp6239
a(I-40
I3380
tp6240
a(I-50
I3381
tp6241
a(I-95
I3382
tp6242
a(I-60
I3383
tp6243
a(I-55
I3384
tp6244
a(I-50
I3385
tp6245
a(I-60
I3386
tp6246
a(I-50
I3387
tp6247
a(I-60
I3388
tp6248
a(I-40
I3389
tp6249
a(I-60
I3390
tp6250
a(I-100
I3391
tp6251
a(I-90
I3392
tp6252
a(I-40
I3393
tp6253
a(I-40
I3394
tp6254
a(I-60
I3395
tp6255
a(I-40
I3396
tp6256
a(I-80
I3397
tp6257
a(I-40
I3398
tp6258
a(I-40
I3399
tp6259
a(I-40
I3400
tp6260
a(I-45
I3401
tp6261
a(I-255
I3402
tp6262
a(I-85
I3403
tp6263
a(I-55
I3404
tp6264
a(I-65
I3405
tp6265
a(I-85
I3406
tp6266
a(I-100
I3407
tp6267
a(I-55
I3408
tp6268
a(I-45
I3409
tp6269
a(I-55
I3410
tp6270
a(I-50
I3411
tp6271
a(I-50
I3412
tp6272
a(I-40
I3413
tp6273
a(I-60
I3414
tp6274
a(I-90
I3415
tp6275
a(I-105
I3416
tp6276
a(I-60
I3417
tp6277
a(I-60
I3418
tp6278
a(I-70
I3419
tp6279
a(I-100
I3420
tp6280
a(I-50
I3421
tp6281
a(I-85
I3422
tp6282
a(I-155
I3423
tp6283
a(I-50
I3424
tp6284
a(I-80
I3425
tp6285
a(I-50
I3426
tp6286
a(I-70
I3427
tp6287
a(I-50
I3428
tp6288
a(I-60
I3429
tp6289
a(I-60
I3430
tp6290
a(I-145
I3431
tp6291
a(I-120
I3432
tp6292
a(I-100
I3433
tp6293
a(I-130
I3434
tp6294
a(I-60
I3435
tp6295
a(I-150
I3436
tp6296
a(I-50
I3437
tp6297
a(I-165
I3438
tp6298
a(I-55
I3439
tp6299
a(I-50
I3440
tp6300
a(I-130
I3441
tp6301
a(I-50
I3442
tp6302
a(I-55
I3443
tp6303
a(I-50
I3444
tp6304
a(I-50
I3445
tp6305
a(I-50
I3446
tp6306
a(I-50
I3447
tp6307
a(I-120
I3448
tp6308
a(I-170
I3449
tp6309
a(I-135
I3450
tp6310
a(I-65
I3451
tp6311
a(I-50
I3452
tp6312
a(I-50
I3453
tp6313
a(I-50
I3454
tp6314
a(I-50
I3455
tp6315
a(I-85
I3456
tp6316
a(I-65
I3457
tp6317
a(I-100
I3458
tp6318
a(I-55
I3459
tp6319
a(I-50
I3460
tp6320
a(I-70
I3461
tp6321
a(I-50
I3462
tp6322
a(I-50
I3463
tp6323
a(I-55
I3464
tp6324
a(I-40
I3465
tp6325
a(I-40
I3466
tp6326
a(I-40
I3467
tp6327
a(I-40
I3468
tp6328
a(I-60
I3469
tp6329
a(I-40
I3470
tp6330
a(I-50
I3471
tp6331
a(I-370
I3472
tp6332
a(I-55
I3473
tp6333
a(I-130
I3474
tp6334
a(I-80
I3475
tp6335
a(I-40
I3476
tp6336
a(I-75
I3477
tp6337
a(I-40
I3478
tp6338
a(I-40
I3479
tp6339
a(I-40
I3480
tp6340
a(I-45
I3481
tp6341
a(I-45
I3482
tp6342
a(I-40
I3483
tp6343
a(I-40
I3484
tp6344
a(I-190
I3485
tp6345
a(I-55
I3486
tp6346
a(I-50
I3487
tp6347
a(I-170
I3488
tp6348
a(I-30
I3489
tp6349
a(I-30
I3490
tp6350
a(I-30
I3491
tp6351
a(I-45
I3492
tp6352
a(I-50
I3493
tp6353
a(I-30
I3494
tp6354
a(I-40
I3495
tp6355
a(I-30
I3496
tp6356
a(I-30
I3497
tp6357
a(I-60
I3498
tp6358
a(I-30
I3499
tp6359
a(I-190
I3500
tp6360
a(I-30
I3501
tp6361
a(I-35
I3502
tp6362
a(I-105
I3503
tp6363
a(I-60
I3504
tp6364
a(I-30
I3505
tp6365
a(I-115
I3506
tp6366
a(I-40
I3507
tp6367
a(I-30
I3508
tp6368
a(I-45
I3509
tp6369
a(I-60
I3510
tp6370
a(I-45
I3511
tp6371
a(I-30
I3512
tp6372
a(I-30
I3513
tp6373
a(I-30
I3514
tp6374
a(I-75
I3515
tp6375
a(I-30
I3516
tp6376
a(I-30
I3517
tp6377
a(I-30
I3518
tp6378
a(I-30
I3519
tp6379
a(I-30
I3520
tp6380
a(I-30
I3521
tp6381
a(I-30
I3522
tp6382
a(I-30
I3523
tp6383
a(I-30
I3524
tp6384
a(I-30
I3525
tp6385
a(I-30
I3526
tp6386
a(I-30
I3527
tp6387
a(I-30
I3528
tp6388
a(I-30
I3529
tp6389
a(I-30
I3530
tp6390
a(I-30
I3531
tp6391
a(I-30
I3532
tp6392
a(I-30
I3533
tp6393
a(I-30
I3534
tp6394
a(I-30
I3535
tp6395
a(I-30
I3536
tp6396
a(I-30
I3537
tp6397
a(I-30
I3538
tp6398
a(I-30
I3539
tp6399
a(I-30
I3540
tp6400
a(I-30
I3541
tp6401
a(I-30
I3542
tp6402
a(I-30
I3543
tp6403
a(I-30
I3544
tp6404
a(I-30
I3545
tp6405
a(I-30
I3546
tp6406
a(I-30
I3547
tp6407
a(I-110
I3548
tp6408
a(I-105
I3549
tp6409
a(I-30
I3550
tp6410
a(I-85
I3551
tp6411
a(I-35
I3552
tp6412
a(I-60
I3553
tp6413
a(I-30
I3554
tp6414
a(I-60
I3555
tp6415
a(I-70
I3556
tp6416
a(I-30
I3557
tp6417
a(I-80
I3558
tp6418
a(I-90
I3559
tp6419
a(I-75
I3560
tp6420
a(I-85
I3561
tp6421
a(I-90
I3562
tp6422
a(I-60
I3563
tp6423
a(I-40
I3564
tp6424
a(I-75
I3565
tp6425
a(I-70
I3566
tp6426
a(I-90
I3567
tp6427
a(I-45
I3568
tp6428
a(I-40
I3569
tp6429
a(I-40
I3570
tp6430
a(I-60
I3571
tp6431
a(I-45
I3572
tp6432
a(I-30
I3573
tp6433
a(I-30
I3574
tp6434
a(I-30
I3575
tp6435
a(I-30
I3576
tp6436
a(I-30
I3577
tp6437
a(I-30
I3578
tp6438
a(I-30
I3579
tp6439
a(I-30
I3580
tp6440
a(I-90
I3581
tp6441
a(I-230
I3582
tp6442
a(I-120
I3583
tp6443
a(I-30
I3584
tp6444
a(I-30
I3585
tp6445
a(I-120
I3586
tp6446
a(I-30
I3587
tp6447
a(I-30
I3588
tp6448
a(I-80
I3589
tp6449
a(I-75
I3590
tp6450
a(I-30
I3591
tp6451
a(I-30
I3592
tp6452
a(I-30
I3593
tp6453
a(I-30
I3594
tp6454
a(I-45
I3595
tp6455
a(I-30
I3596
tp6456
a(I-30
I3597
tp6457
a(I-45
I3598
tp6458
a(I-235
I3599
tp6459
a(I-30
I3600
tp6460
a(I-30
I3601
tp6461
a(I-30
I3602
tp6462
a(I-30
I3603
tp6463
a(I-30
I3604
tp6464
a(I-210
I3605
tp6465
a(I-325
I3606
tp6466
a(I-30
I3607
tp6467
a(I-30
I3608
tp6468
a(I-30
I3609
tp6469
a(I-30
I3610
tp6470
a(I-30
I3611
tp6471
a(I-30
I3612
tp6472
a(I-30
I3613
tp6473
a(I-30
I3614
tp6474
a(I-35
I3615
tp6475
a(I-40
I3616
tp6476
a(I-110
I3617
tp6477
a(I-40
I3618
tp6478
a(I-40
I3619
tp6479
a(I-155
I3620
tp6480
a(I-75
I3621
tp6481
a(I-45
I3622
tp6482
a(I-105
I3623
tp6483
a(I-85
I3624
tp6484
a(I-100
I3625
tp6485
a(I-85
I3626
tp6486
a(I-80
I3627
tp6487
a(I-100
I3628
tp6488
a(I-50
I3629
tp6489
a(I-345
I3630
tp6490
a(I-55
I3631
tp6491
a(I-120
I3632
tp6492
a(I-60
I3633
tp6493
a(I-65
I3634
tp6494
a(I-85
I3635
tp6495
a(I-60
I3636
tp6496
a(I-75
I3637
tp6497
a(I-75
I3638
tp6498
a(I-75
I3639
tp6499
a(I-50
I3640
tp6500
a(I-45
I3641
tp6501
a(I-50
I3642
tp6502
a(I-50
I3643
tp6503
a(I-55
I3644
tp6504
a(I-70
I3645
tp6505
a(I-95
I3646
tp6506
a(I-50
I3647
tp6507
a(I-60
I3648
tp6508
a(I-95
I3649
tp6509
a(I-90
I3650
tp6510
a(I-85
I3651
tp6511
a(I-45
I3652
tp6512
a(I-125
I3653
tp6513
a(I-40
I3654
tp6514
a(I-70
I3655
tp6515
a(I-60
I3656
tp6516
a(I-40
I3657
tp6517
a(I-40
I3658
tp6518
a(I-50
I3659
tp6519
a(I-40
I3660
tp6520
a(I-145
I3661
tp6521
a(I-135
I3662
tp6522
a(I-90
I3663
tp6523
a(I-65
I3664
tp6524
a(I-45
I3665
tp6525
a(I-45
I3666
tp6526
a(I-60
I3667
tp6527
a(I-45
I3668
tp6528
a(I-40
I3669
tp6529
a(I-75
I3670
tp6530
a(I-40
I3671
tp6531
a(I-70
I3672
tp6532
a(I-110
I3673
tp6533
a(I-50
I3674
tp6534
a(I-65
I3675
tp6535
a(I-75
I3676
tp6536
a(I-60
I3677
tp6537
a(I-100
I3678
tp6538
a(I-140
I3679
tp6539
a(I-50
I3680
tp6540
a(I-65
I3681
tp6541
a(I-65
I3682
tp6542
a(I-70
I3683
tp6543
a(I-90
I3684
tp6544
a(I-70
I3685
tp6545
a(I-85
I3686
tp6546
a(I-40
I3687
tp6547
a(I-75
I3688
tp6548
a(I-45
I3689
tp6549
a(I-70
I3690
tp6550
a(I-85
I3691
tp6551
a(I-45
I3692
tp6552
a(I-80
I3693
tp6553
a(I-60
I3694
tp6554
a(I-75
I3695
tp6555
a(I-50
I3696
tp6556
a(I-60
I3697
tp6557
a(I-50
I3698
tp6558
a(I-50
I3699
tp6559
a(I-50
I3700
tp6560
a(I-60
I3701
tp6561
a(I-50
I3702
tp6562
a(I-65
I3703
tp6563
a(I-50
I3704
tp6564
a(I-45
I3705
tp6565
a(I-65
I3706
tp6566
a(I-110
I3707
tp6567
a(I-60
I3708
tp6568
a(I-50
I3709
tp6569
a(I-45
I3710
tp6570
a(I-55
I3711
tp6571
a(I-55
I3712
tp6572
a(I-60
I3713
tp6573
a(I-40
I3714
tp6574
a(I-40
I3715
tp6575
a(I-40
I3716
tp6576
a(I-40
I3717
tp6577
a(I-40
I3718
tp6578
a(I-40
I3719
tp6579
a(I-40
I3720
tp6580
a(I-40
I3721
tp6581
a(I-40
I3722
tp6582
a(I-40
I3723
tp6583
a(I-50
I3724
tp6584
a(I-50
I3725
tp6585
a(I-50
I3726
tp6586
a(I-50
I3727
tp6587
a(I-60
I3728
tp6588
a(I-50
I3729
tp6589
a(I-90
I3730
tp6590
a(I-60
I3731
tp6591
a(I-80
I3732
tp6592
a(I-80
I3733
tp6593
a(I-45
I3734
tp6594
a(I-60
I3735
tp6595
a(I-55
I3736
tp6596
a(I-55
I3737
tp6597
a(I-145
I3738
tp6598
a(I-160
I3739
tp6599
a(I-70
I3740
tp6600
a(I-65
I3741
tp6601
a(I-75
I3742
tp6602
a(I-50
I3743
tp6603
a(I-50
I3744
tp6604
a(I-50
I3745
tp6605
a(I-55
I3746
tp6606
a(I-50
I3747
tp6607
a(I-135
I3748
tp6608
a(I-55
I3749
tp6609
a(I-55
I3750
tp6610
a(I-320
I3751
tp6611
a(I-60
I3752
tp6612
a(I-65
I3753
tp6613
a(I-55
I3754
tp6614
a(I-60
I3755
tp6615
a(I-50
I3756
tp6616
a(I-270
I3757
tp6617
a(I-50
I3758
tp6618
a(I-70
I3759
tp6619
a(I-60
I3760
tp6620
a(I-90
I3761
tp6621
a(I-60
I3762
tp6622
a(I-110
I3763
tp6623
a(I-80
I3764
tp6624
a(I-85
I3765
tp6625
a(I-80
I3766
tp6626
a(I-90
I3767
tp6627
a(I-70
I3768
tp6628
a(I-115
I3769
tp6629
a(I-60
I3770
tp6630
a(I-70
I3771
tp6631
a(I-120
I3772
tp6632
a(I-60
I3773
tp6633
a(I-60
I3774
tp6634
a(I-60
I3775
tp6635
a(I-85
I3776
tp6636
a(I-85
I3777
tp6637
a(I-50
I3778
tp6638
a(I-40
I3779
tp6639
a(I-115
I3780
tp6640
a(I-85
I3781
tp6641
a(I-70
I3782
tp6642
a(I-70
I3783
tp6643
a(I-55
I3784
tp6644
a(I-125
I3785
tp6645
a(I-215
I3786
tp6646
a(I-120
I3787
tp6647
a(I-55
I3788
tp6648
a(I-75
I3789
tp6649
a(I-45
I3790
tp6650
a(I-40
I3791
tp6651
a(I-65
I3792
tp6652
a(I-40
I3793
tp6653
a(I-40
I3794
tp6654
a(I-50
I3795
tp6655
a(I-50
I3796
tp6656
a(I-85
I3797
tp6657
a(I-30
I3798
tp6658
a(I-30
I3799
tp6659
a(I-30
I3800
tp6660
a(I-30
I3801
tp6661
a(I-30
I3802
tp6662
a(I-30
I3803
tp6663
a(I-30
I3804
tp6664
a(I-30
I3805
tp6665
a(I-30
I3806
tp6666
a(I-30
I3807
tp6667
a(I-100
I3808
tp6668
a(I-65
I3809
tp6669
a(I-85
I3810
tp6670
a(I-135
I3811
tp6671
a(I-35
I3812
tp6672
a(I-45
I3813
tp6673
a(I-140
I3814
tp6674
a(I-30
I3815
tp6675
a(I-45
I3816
tp6676
a(I-30
I3817
tp6677
a(I-30
I3818
tp6678
a(I-30
I3819
tp6679
a(I-45
I3820
tp6680
a(I-35
I3821
tp6681
a(I-30
I3822
tp6682
a(I-30
I3823
tp6683
a(I-35
I3824
tp6684
a(I-30
I3825
tp6685
a(I-30
I3826
tp6686
a(I-30
I3827
tp6687
a(I-30
I3828
tp6688
a(I-30
I3829
tp6689
a(I-30
I3830
tp6690
a(I-35
I3831
tp6691
a(I-30
I3832
tp6692
a(I-95
I3833
tp6693
a(I-30
I3834
tp6694
a(I-30
I3835
tp6695
a(I-30
I3836
tp6696
a(I-80
I3837
tp6697
a(I-30
I3838
tp6698
a(I-30
I3839
tp6699
a(I-30
I3840
tp6700
a(I-30
I3841
tp6701
a(I-30
I3842
tp6702
a(I-30
I3843
tp6703
a(I-30
I3844
tp6704
a(I-30
I3845
tp6705
a(I-30
I3846
tp6706
a(I-30
I3847
tp6707
a(I-30
I3848
tp6708
a(I-30
I3849
tp6709
a(I-30
I3850
tp6710
a(I-30
I3851
tp6711
a(I-30
I3852
tp6712
a(I-30
I3853
tp6713
a(I-30
I3854
tp6714
a(I-30
I3855
tp6715
a(I-30
I3856
tp6716
a(I-30
I3857
tp6717
a(I-30
I3858
tp6718
a(I-30
I3859
tp6719
a(I-30
I3860
tp6720
a(I-30
I3861
tp6721
a(I-30
I3862
tp6722
a(I-30
I3863
tp6723
a(I-30
I3864
tp6724
a(I-30
I3865
tp6725
a(I-30
I3866
tp6726
a(I-30
I3867
tp6727
a(I-30
I3868
tp6728
a(I-30
I3869
tp6729
a(I-30
I3870
tp6730
a(I-30
I3871
tp6731
a(I-30
I3872
tp6732
a(I-30
I3873
tp6733
a(I-30
I3874
tp6734
a(I-45
I3875
tp6735
a(I-100
I3876
tp6736
a(I-85
I3877
tp6737
a(I-95
I3878
tp6738
a(I-30
I3879
tp6739
a(I-30
I3880
tp6740
a(I-45
I3881
tp6741
a(I-30
I3882
tp6742
a(I-30
I3883
tp6743
a(I-30
I3884
tp6744
a(I-30
I3885
tp6745
a(I-30
I3886
tp6746
a(I-30
I3887
tp6747
a(I-225
I3888
tp6748
a(I-30
I3889
tp6749
a(I-30
I3890
tp6750
a(I-30
I3891
tp6751
a(I-30
I3892
tp6752
a(I-30
I3893
tp6753
a(I-30
I3894
tp6754
a(I-30
I3895
tp6755
a(I-55
I3896
tp6756
a(I-80
I3897
tp6757
a(I-55
I3898
tp6758
a(I-30
I3899
tp6759
a(I-30
I3900
tp6760
a(I-30
I3901
tp6761
a(I-30
I3902
tp6762
a(I-30
I3903
tp6763
a(I-30
I3904
tp6764
a(I-30
I3905
tp6765
a(I-30
I3906
tp6766
a(I-30
I3907
tp6767
a(I-30
I3908
tp6768
a(I-30
I3909
tp6769
a(I-30
I3910
tp6770
a(I-30
I3911
tp6771
a(I-30
I3912
tp6772
a(I-30
I3913
tp6773
a(I-60
I3914
tp6774
a(I-30
I3915
tp6775
a(I-30
I3916
tp6776
a(I-30
I3917
tp6777
a(I-30
I3918
tp6778
a(I-30
I3919
tp6779
a(I-40
I3920
tp6780
a(I-365
I3921
tp6781
a(I-75
I3922
tp6782
a(I-30
I3923
tp6783
a(I-105
I3924
tp6784
a(I-30
I3925
tp6785
a(I-30
I3926
tp6786
a(I-30
I3927
tp6787
a(I-30
I3928
tp6788
a(I-35
I3929
tp6789
a(I-30
I3930
tp6790
a(I-30
I3931
tp6791
a(I-30
I3932
tp6792
a(I-100
I3933
tp6793
a(I-80
I3934
tp6794
a(I-30
I3935
tp6795
a(I-95
I3936
tp6796
a(I-30
I3937
tp6797
a(I-30
I3938
tp6798
a(I-30
I3939
tp6799
a(I-285
I3940
tp6800
a(I-30
I3941
tp6801
a(I-30
I3942
tp6802
a(I-65
I3943
tp6803
a(I-45
I3944
tp6804
a(I-70
I3945
tp6805
a(I-55
I3946
tp6806
a(I-70
I3947
tp6807
a(I-50
I3948
tp6808
a(I-45
I3949
tp6809
a(I-50
I3950
tp6810
a(I-70
I3951
tp6811
a(I-60
I3952
tp6812
a(I-45
I3953
tp6813
a(I-55
I3954
tp6814
a(I-110
I3955
tp6815
a(I-80
I3956
tp6816
a(I-90
I3957
tp6817
a(I-65
I3958
tp6818
a(I-45
I3959
tp6819
a(I-45
I3960
tp6820
a(I-70
I3961
tp6821
a(I-100
I3962
tp6822
a(I-130
I3963
tp6823
a(I-45
I3964
tp6824
a(I-50
I3965
tp6825
a(I-120
I3966
tp6826
a(I-60
I3967
tp6827
a(I-40
I3968
tp6828
a(I-55
I3969
tp6829
a(I-40
I3970
tp6830
a(I-50
I3971
tp6831
a(I-235
I3972
tp6832
a(I-40
I3973
tp6833
a(I-70
I3974
tp6834
a(I-80
I3975
tp6835
a(I-40
I3976
tp6836
a(I-45
I3977
tp6837
a(I-45
I3978
tp6838
a(I-50
I3979
tp6839
a(I-65
I3980
tp6840
a(I-50
I3981
tp6841
a(I-40
I3982
tp6842
a(I-40
I3983
tp6843
a(I-60
I3984
tp6844
a(I-40
I3985
tp6845
a(I-60
I3986
tp6846
a(I-40
I3987
tp6847
a(I-80
I3988
tp6848
a(I-40
I3989
tp6849
a(I-40
I3990
tp6850
a(I-55
I3991
tp6851
a(I-40
I3992
tp6852
a(I-40
I3993
tp6853
a(I-50
I3994
tp6854
a(I-60
I3995
tp6855
a(I-60
I3996
tp6856
a(I-50
I3997
tp6857
a(I-40
I3998
tp6858
a(I-45
I3999
tp6859
a(I-50
I4000
tp6860
a(I-60
I4001
tp6861
a(I-50
I4002
tp6862
a(I-40
I4003
tp6863
a(I-50
I4004
tp6864
a(I-50
I4005
tp6865
a(I-45
I4006
tp6866
a(I-75
I4007
tp6867
a(I-50
I4008
tp6868
a(I-40
I4009
tp6869
a(I-50
I4010
tp6870
a(I-60
I4011
tp6871
a(I-45
I4012
tp6872
a(I-40
I4013
tp6873
a(I-40
I4014
tp6874
a(I-50
I4015
tp6875
a(I-90
I4016
tp6876
a(I-40
I4017
tp6877
a(I-80
I4018
tp6878
a(I-40
I4019
tp6879
a(I-40
I4020
tp6880
a(I-75
I4021
tp6881
a(I-45
I4022
tp6882
a(I-55
I4023
tp6883
a(I-50
I4024
tp6884
a(I-40
I4025
tp6885
a(I-60
I4026
tp6886
a(I-50
I4027
tp6887
a(I-70
I4028
tp6888
a(I-50
I4029
tp6889
a(I-60
I4030
tp6890
a(I-55
I4031
tp6891
a(I-55
I4032
tp6892
a(I-60
I4033
tp6893
a(I-40
I4034
tp6894
a(I-40
I4035
tp6895
a(I-50
I4036
tp6896
a(I-40
I4037
tp6897
a(I-105
I4038
tp6898
a(I-40
I4039
tp6899
a(I-50
I4040
tp6900
a(I-40
I4041
tp6901
a(I-45
I4042
tp6902
a(I-60
I4043
tp6903
a(I-40
I4044
tp6904
a(I-40
I4045
tp6905
a(I-40
I4046
tp6906
a(I-50
I4047
tp6907
a(I-45
I4048
tp6908
a(I-40
I4049
tp6909
a(I-55
I4050
tp6910
a(I-50
I4051
tp6911
a(I-110
I4052
tp6912
a(I-80
I4053
tp6913
a(I-60
I4054
tp6914
a(I-70
I4055
tp6915
a(I-50
I4056
tp6916
a(I-40
I4057
tp6917
a(I-75
I4058
tp6918
a(I-135
I4059
tp6919
a(I-55
I4060
tp6920
a(I-55
I4061
tp6921
a(I-40
I4062
tp6922
a(I-65
I4063
tp6923
a(I-50
I4064
tp6924
a(I-60
I4065
tp6925
a(I-60
I4066
tp6926
a(I-55
I4067
tp6927
a(I-50
I4068
tp6928
a(I-55
I4069
tp6929
a(I-40
I4070
tp6930
a(I-70
I4071
tp6931
a(I-60
I4072
tp6932
a(I-95
I4073
tp6933
a(I-60
I4074
tp6934
a(I-70
I4075
tp6935
a(I-85
I4076
tp6936
a(I-90
I4077
tp6937
a(I-85
I4078
tp6938
a(I-40
I4079
tp6939
a(I-90
I4080
tp6940
a(I-40
I4081
tp6941
a(I-75
I4082
tp6942
a(I-50
I4083
tp6943
a(I-105
I4084
tp6944
a(I-85
I4085
tp6945
a(I-110
I4086
tp6946
a(I-270
I4087
tp6947
a(I-90
I4088
tp6948
a(I-90
I4089
tp6949
a(I-115
I4090
tp6950
a(I-95
I4091
tp6951
a(I-50
I4092
tp6952
a(I-135
I4093
tp6953
a(I-100
I4094
tp6954
a(I-110
I4095
tp6955
a(I-60
I4096
tp6956
a(I-180
I4097
tp6957
a(I-50
I4098
tp6958
a(I-85
I4099
tp6959
a(I-80
I4100
tp6960
a(I-55
I4101
tp6961
a(I-75
I4102
tp6962
a(I-55
I4103
tp6963
a(I-65
I4104
tp6964
a(I-90
I4105
tp6965
a(I-170
I4106
tp6966
a(I-115
I4107
tp6967
a(I-160
I4108
tp6968
a(I-55
I4109
tp6969
a(I-135
I4110
tp6970
a(I-180
I4111
tp6971
a(I-135
I4112
tp6972
a(I-60
I4113
tp6973
a(I-130
I4114
tp6974
a(I-120
I4115
tp6975
a(I-40
I4116
tp6976
a(I-60
I4117
tp6977
a(I-95
I4118
tp6978
a(I-55
I4119
tp6979
a(I-40
I4120
tp6980
a(I-60
I4121
tp6981
a(I-85
I4122
tp6982
a(I-90
I4123
tp6983
a(I-60
I4124
tp6984
a(I-165
I4125
tp6985
a(I-145
I4126
tp6986
a(I-40
I4127
tp6987
a(I-40
I4128
tp6988
a(I-40
I4129
tp6989
a(I-40
I4130
tp6990
a(I-40
I4131
tp6991
a(I-40
I4132
tp6992
a(I-40
I4133
tp6993
a(I-40
I4134
tp6994
a(I-40
I4135
tp6995
a(I-40
I4136
tp6996
a(I-40
I4137
tp6997
a(I-40
I4138
tp6998
a(I-40
I4139
tp6999
a(I-40
I4140
tp7000
a(I-40
I4141
tp7001
a(I-40
I4142
tp7002
a(I-40
I4143
tp7003
a(I-40
I4144
tp7004
a(I-45
I4145
tp7005
a(I-50
I4146
tp7006
a(I-210
I4147
tp7007
a(I-50
I4148
tp7008
a(I-100
I4149
tp7009
a(I-40
I4150
tp7010
a(I-40
I4151
tp7011
a(I-105
I4152
tp7012
a(I-55
I4153
tp7013
a(I-65
I4154
tp7014
a(I-115
I4155
tp7015
a(I-50
I4156
tp7016
a(I-70
I4157
tp7017
a(I-50
I4158
tp7018
a(I-95
I4159
tp7019
a(I-60
I4160
tp7020
a(I-75
I4161
tp7021
a(I-215
I4162
tp7022
a(I-55
I4163
tp7023
a(I-45
I4164
tp7024
a(I-85
I4165
tp7025
a(I-70
I4166
tp7026
a(I-50
I4167
tp7027
a(I-55
I4168
tp7028
a(I-50
I4169
tp7029
a(I-90
I4170
tp7030
a(I-55
I4171
tp7031
a(I-95
I4172
tp7032
a(I-115
I4173
tp7033
a(I-65
I4174
tp7034
a(I-95
I4175
tp7035
a(I-80
I4176
tp7036
a(I-70
I4177
tp7037
a(I-60
I4178
tp7038
a(I-90
I4179
tp7039
a(I-150
I4180
tp7040
a(I-105
I4181
tp7041
a(I-55
I4182
tp7042
a(I-55
I4183
tp7043
a(I-110
I4184
tp7044
a(I-45
I4185
tp7045
a(I-50
I4186
tp7046
a(I-60
I4187
tp7047
a(I-60
I4188
tp7048
a(I-45
I4189
tp7049
a(I-40
I4190
tp7050
a(I-50
I4191
tp7051
a(I-50
I4192
tp7052
a(I-70
I4193
tp7053
a(I-65
I4194
tp7054
a(I-110
I4195
tp7055
a(I-85
I4196
tp7056
a(I-70
I4197
tp7057
a(I-75
I4198
tp7058
a(I-70
I4199
tp7059
a(I-80
I4200
tp7060
a(I-50
I4201
tp7061
a(I-45
I4202
tp7062
a(I-40
I4203
tp7063
a(I-45
I4204
tp7064
a(I-40
I4205
tp7065
a(I-70
I4206
tp7066
a(I-100
I4207
tp7067
a(I-55
I4208
tp7068
a(I-85
I4209
tp7069
a(I-50
I4210
tp7070
a(I-55
I4211
tp7071
a(I-50
I4212
tp7072
a(I-70
I4213
tp7073
a(I-65
I4214
tp7074
a(I-55
I4215
tp7075
a(I-170
I4216
tp7076
a(I-55
I4217
tp7077
a(I-120
I4218
tp7078
a(I-60
I4219
tp7079
a(I-60
I4220
tp7080
a(I-55
I4221
tp7081
a(I-60
I4222
tp7082
a(I-55
I4223
tp7083
a(I-60
I4224
tp7084
a(I-95
I4225
tp7085
a(I-70
I4226
tp7086
a(I-50
I4227
tp7087
a(I-50
I4228
tp7088
a(I-50
I4229
tp7089
a(I-50
I4230
tp7090
a(I-50
I4231
tp7091
a(I-50
I4232
tp7092
a(I-50
I4233
tp7093
a(I-55
I4234
tp7094
a(I-50
I4235
tp7095
a(I-70
I4236
tp7096
a(I-50
I4237
tp7097
a(I-60
I4238
tp7098
a(I-75
I4239
tp7099
a(I-60
I4240
tp7100
a(I-95
I4241
tp7101
a(I-50
I4242
tp7102
a(I-65
I4243
tp7103
a(I-60
I4244
tp7104
a(I-50
I4245
tp7105
a(I-50
I4246
tp7106
a(I-50
I4247
tp7107
a(I-50
I4248
tp7108
a(I-75
I4249
tp7109
a(I-70
I4250
tp7110
a(I-190
I4251
tp7111
a(I-50
I4252
tp7112
a(I-70
I4253
tp7113
a(I-40
I4254
tp7114
a(I-60
I4255
tp7115
a(I-50
I4256
tp7116
a(I-50
I4257
tp7117
a(I-75
I4258
tp7118
a(I-50
I4259
tp7119
a(I-60
I4260
tp7120
a(I-95
I4261
tp7121
a(I-50
I4262
tp7122
a(I-60
I4263
tp7123
a(I-45
I4264
tp7124
a(I-40
I4265
tp7125
a(I-70
I4266
tp7126
a(I-75
I4267
tp7127
a(I-65
I4268
tp7128
a(I-60
I4269
tp7129
a(I-225
I4270
tp7130
a(I-90
I4271
tp7131
a(I-50
I4272
tp7132
a(I-60
I4273
tp7133
a(I-70
I4274
tp7134
a(I-60
I4275
tp7135
a(I-60
I4276
tp7136
a(I-50
I4277
tp7137
a(I-60
I4278
tp7138
a(I-50
I4279
tp7139
a(I-40
I4280
tp7140
a(I-50
I4281
tp7141
a(I-75
I4282
tp7142
a(I-40
I4283
tp7143
a(I-40
I4284
tp7144
a(I-80
I4285
tp7145
a(I-40
I4286
tp7146
a(I-40
I4287
tp7147
a(I-40
I4288
tp7148
a(I-110
I4289
tp7149
a(I-75
I4290
tp7150
a(I-155
I4291
tp7151
a(I-125
I4292
tp7152
a(I-40
I4293
tp7153
a(I-60
I4294
tp7154
a(I-80
I4295
tp7155
a(I-75
I4296
tp7156
a(I-70
I4297
tp7157
a(I-65
I4298
tp7158
a(I-60
I4299
tp7159
a(I-75
I4300
tp7160
a(I-60
I4301
tp7161
a(I-55
I4302
tp7162
a(I-70
I4303
tp7163
a(I-85
I4304
tp7164
a(I-60
I4305
tp7165
a(I-90
I4306
tp7166
a(I-75
I4307
tp7167
a(I-110
I4308
tp7168
a(I-110
I4309
tp7169
a(I-65
I4310
tp7170
a(I-90
I4311
tp7171
a(I-60
I4312
tp7172
a(I-70
I4313
tp7173
a(I-45
I4314
tp7174
a(I-425
I4315
tp7175
a(I-85
I4316
tp7176
a(I-45
I4317
tp7177
a(I-45
I4318
tp7178
a(I-45
I4319
tp7179
a(I-80
I4320
tp7180
a(I-45
I4321
tp7181
a(I-45
I4322
tp7182
a(I-60
I4323
tp7183
a(I-60
I4324
tp7184
a(I-40
I4325
tp7185
a(I-40
I4326
tp7186
a(I-40
I4327
tp7187
a(I-65
I4328
tp7188
a(I-50
I4329
tp7189
a(I-30
I4330
tp7190
a(I-30
I4331
tp7191
a(I-50
I4332
tp7192
a(I-50
I4333
tp7193
a(I-50
I4334
tp7194
a(I-50
I4335
tp7195
a(I-90
I4336
tp7196
a(I-45
I4337
tp7197
a(I-70
I4338
tp7198
a(I-30
I4339
tp7199
a(I-30
I4340
tp7200
a(I-55
I4341
tp7201
a(I-90
I4342
tp7202
a(I-70
I4343
tp7203
a(I-75
I4344
tp7204
a(I-55
I4345
tp7205
a(I-130
I4346
tp7206
a(I-50
I4347
tp7207
a(I-105
I4348
tp7208
a(I-275
I4349
tp7209
a(I-155
I4350
tp7210
a(I-30
I4351
tp7211
a(I-30
I4352
tp7212
a(I-30
I4353
tp7213
a(I-30
I4354
tp7214
a(I-40
I4355
tp7215
a(I-30
I4356
tp7216
a(I-30
I4357
tp7217
a(I-30
I4358
tp7218
a(I-30
I4359
tp7219
a(I-60
I4360
tp7220
a(I-30
I4361
tp7221
a(I-30
I4362
tp7222
a(I-30
I4363
tp7223
a(I-30
I4364
tp7224
a(I-30
I4365
tp7225
a(I-70
I4366
tp7226
a(I-30
I4367
tp7227
a(I-30
I4368
tp7228
a(I-30
I4369
tp7229
a(I-30
I4370
tp7230
a(I-30
I4371
tp7231
a(I-30
I4372
tp7232
a(I-30
I4373
tp7233
a(I-30
I4374
tp7234
a(I-30
I4375
tp7235
a(I-30
I4376
tp7236
a(I-30
I4377
tp7237
a(I-30
I4378
tp7238
a(I-30
I4379
tp7239
a(I-30
I4380
tp7240
a(I-30
I4381
tp7241
a(I-30
I4382
tp7242
a(I-30
I4383
tp7243
a(I-30
I4384
tp7244
a(I-30
I4385
tp7245
a(I-30
I4386
tp7246
a(I-30
I4387
tp7247
a(I-30
I4388
tp7248
a(I-30
I4389
tp7249
a(I-30
I4390
tp7250
a(I-30
I4391
tp7251
a(I-30
I4392
tp7252
a(I-30
I4393
tp7253
a(I-30
I4394
tp7254
a(I-30
I4395
tp7255
a(I-30
I4396
tp7256
a(I-30
I4397
tp7257
a(I-30
I4398
tp7258
a(I-30
I4399
tp7259
a(I-30
I4400
tp7260
a(I-30
I4401
tp7261
a(I-30
I4402
tp7262
a(I-30
I4403
tp7263
a(I-30
I4404
tp7264
a(I-30
I4405
tp7265
a(I-30
I4406
tp7266
a(I-30
I4407
tp7267
a(I-30
I4408
tp7268
a(I-30
I4409
tp7269
a(I-30
I4410
tp7270
a(I-30
I4411
tp7271
a(I-30
I4412
tp7272
a(I-30
I4413
tp7273
a(I-30
I4414
tp7274
a(I-30
I4415
tp7275
a(I-30
I4416
tp7276
a(I-30
I4417
tp7277
a(I-30
I4418
tp7278
a(I-30
I4419
tp7279
a(I-30
I4420
tp7280
a(I-30
I4421
tp7281
a(I-30
I4422
tp7282
a(I-30
I4423
tp7283
a(I-30
I4424
tp7284
a(I-80
I4425
tp7285
a(I-30
I4426
tp7286
a(I-30
I4427
tp7287
a(I-80
I4428
tp7288
a(I-30
I4429
tp7289
a(I-30
I4430
tp7290
a(I-40
I4431
tp7291
a(I-120
I4432
tp7292
a(I-30
I4433
tp7293
a(I-30
I4434
tp7294
a(I-30
I4435
tp7295
a(I-30
I4436
tp7296
a(I-120
I4437
tp7297
a(I-30
I4438
tp7298
a(I-30
I4439
tp7299
a(I-30
I4440
tp7300
a(I-55
I4441
tp7301
a(I-30
I4442
tp7302
a(I-290
I4443
tp7303
a(I-30
I4444
tp7304
a(I-40
I4445
tp7305
a(I-30
I4446
tp7306
a(I-30
I4447
tp7307
a(I-35
I4448
tp7308
a(I-65
I4449
tp7309
a(I-30
I4450
tp7310
a(I-30
I4451
tp7311
a(I-165
I4452
tp7312
a(I-35
I4453
tp7313
a(I-30
I4454
tp7314
a(I-30
I4455
tp7315
a(I-30
I4456
tp7316
a(I-45
I4457
tp7317
a(I-30
I4458
tp7318
a(I-30
I4459
tp7319
a(I-30
I4460
tp7320
a(I-30
I4461
tp7321
a(I-30
I4462
tp7322
a(I-30
I4463
tp7323
a(I-30
I4464
tp7324
a(I-30
I4465
tp7325
a(I-30
I4466
tp7326
a(I-30
I4467
tp7327
a(I-30
I4468
tp7328
a(I-30
I4469
tp7329
a(I-30
I4470
tp7330
a(I-30
I4471
tp7331
a(I-30
I4472
tp7332
a(I-30
I4473
tp7333
a(I-30
I4474
tp7334
a(I-30
I4475
tp7335
a(I-30
I4476
tp7336
a(I-30
I4477
tp7337
a(I-30
I4478
tp7338
a(I-30
I4479
tp7339
a(I-35
I4480
tp7340
a(I-30
I4481
tp7341
a(I-30
I4482
tp7342
a(I-30
I4483
tp7343
a(I-30
I4484
tp7344
a(I-30
I4485
tp7345
a(I-30
I4486
tp7346
a(I-30
I4487
tp7347
a(I-30
I4488
tp7348
a(I-30
I4489
tp7349
a(I-30
I4490
tp7350
a(I-30
I4491
tp7351
a(I-30
I4492
tp7352
a(I-30
I4493
tp7353
a(I-30
I4494
tp7354
a(I-30
I4495
tp7355
a(I-75
I4496
tp7356
a(I-60
I4497
tp7357
a(I-135
I4498
tp7358
a(I-80
I4499
tp7359
a(I-90
I4500
tp7360
a(I-30
I4501
tp7361
a(I-30
I4502
tp7362
a(I-30
I4503
tp7363
a(I-30
I4504
tp7364
a(I-30
I4505
tp7365
a(I-30
I4506
tp7366
a(I-30
I4507
tp7367
a(I-30
I4508
tp7368
a(I-60
I4509
tp7369
a(I-70
I4510
tp7370
a(I-50
I4511
tp7371
a(I-30
I4512
tp7372
a(I-30
I4513
tp7373
a(I-30
I4514
tp7374
a(I-30
I4515
tp7375
a(I-30
I4516
tp7376
a(I-30
I4517
tp7377
a(I-30
I4518
tp7378
a(I-30
I4519
tp7379
a(I-30
I4520
tp7380
a(I-30
I4521
tp7381
a(I-30
I4522
tp7382
a(I-50
I4523
tp7383
a(I-30
I4524
tp7384
a(I-30
I4525
tp7385
a(I-30
I4526
tp7386
a(I-30
I4527
tp7387
a(I-30
I4528
tp7388
a(I-30
I4529
tp7389
a(I-30
I4530
tp7390
a(I-30
I4531
tp7391
a(I-30
I4532
tp7392
a(I-30
I4533
tp7393
a(I-45
I4534
tp7394
a(I-30
I4535
tp7395
a(I-30
I4536
tp7396
a(I-30
I4537
tp7397
a(I-30
I4538
tp7398
a(I-30
I4539
tp7399
a(I-30
I4540
tp7400
a(I-30
I4541
tp7401
a(I-30
I4542
tp7402
a(I-30
I4543
tp7403
a(I-30
I4544
tp7404
a(I-30
I4545
tp7405
a(I-30
I4546
tp7406
a(I-30
I4547
tp7407
a(I-30
I4548
tp7408
a(I-30
I4549
tp7409
a(I-30
I4550
tp7410
a(I-35
I4551
tp7411
a(I-30
I4552
tp7412
a(I-30
I4553
tp7413
a(I-35
I4554
tp7414
a(I-30
I4555
tp7415
a(I-30
I4556
tp7416
a(I-30
I4557
tp7417
a(I-30
I4558
tp7418
a(I-30
I4559
tp7419
a(I-30
I4560
tp7420
a(I-30
I4561
tp7421
a(I-30
I4562
tp7422
a(I-30
I4563
tp7423
a(I-205
I4564
tp7424
a(I-30
I4565
tp7425
a(I-55
I4566
tp7426
a(I-30
I4567
tp7427
a(I-30
I4568
tp7428
a(I-170
I4569
tp7429
a(I-30
I4570
tp7430
a(I-30
I4571
tp7431
a(I-30
I4572
tp7432
a(I-30
I4573
tp7433
a(I-30
I4574
tp7434
a(I-30
I4575
tp7435
a(I-30
I4576
tp7436
a(I-30
I4577
tp7437
a(I-30
I4578
tp7438
a(I-30
I4579
tp7439
a(I-30
I4580
tp7440
a(I-30
I4581
tp7441
a(I-30
I4582
tp7442
a(I-30
I4583
tp7443
a(I-30
I4584
tp7444
a(I-30
I4585
tp7445
a(I-30
I4586
tp7446
a(I-30
I4587
tp7447
a(I-165
I4588
tp7448
a(I-30
I4589
tp7449
a(I-30
I4590
tp7450
a(I-30
I4591
tp7451
a(I-30
I4592
tp7452
a(I-30
I4593
tp7453
a(I-30
I4594
tp7454
a(I-30
I4595
tp7455
a(I-30
I4596
tp7456
a(I-30
I4597
tp7457
a(I-30
I4598
tp7458
a(I-30
I4599
tp7459
a(I-30
I4600
tp7460
a(I-30
I4601
tp7461
a(I-30
I4602
tp7462
a(I-30
I4603
tp7463
a(I-30
I4604
tp7464
a(I-30
I4605
tp7465
a(I-30
I4606
tp7466
a(I-30
I4607
tp7467
a(I-30
I4608
tp7468
a(I-30
I4609
tp7469
a(I-30
I4610
tp7470
a(I-70
I4611
tp7471
a(I-70
I4612
tp7472
a(I-30
I4613
tp7473
a(I-30
I4614
tp7474
a(I-30
I4615
tp7475
a(I-30
I4616
tp7476
a(I-30
I4617
tp7477
a(I-30
I4618
tp7478
a(I-55
I4619
tp7479
a(I-30
I4620
tp7480
a(I-30
I4621
tp7481
a(I-30
I4622
tp7482
a(I-45
I4623
tp7483
a(I-30
I4624
tp7484
a(I-35
I4625
tp7485
a(I-40
I4626
tp7486
a(I-30
I4627
tp7487
a(I-30
I4628
tp7488
a(I-30
I4629
tp7489
a(I-30
I4630
tp7490
a(I-30
I4631
tp7491
a(I-85
I4632
tp7492
a(I-30
I4633
tp7493
a(I-30
I4634
tp7494
a(I-30
I4635
tp7495
a(I-30
I4636
tp7496
a(I-30
I4637
tp7497
a(I-30
I4638
tp7498
a(I-30
I4639
tp7499
a(I-60
I4640
tp7500
a(I-30
I4641
tp7501
a(I-30
I4642
tp7502
a(I-90
I4643
tp7503
a(I-30
I4644
tp7504
a(I-30
I4645
tp7505
a(I-30
I4646
tp7506
a(I-30
I4647
tp7507
a(I-30
I4648
tp7508
a(I-30
I4649
tp7509
a(I-30
I4650
tp7510
a(I-30
I4651
tp7511
a(I-30
I4652
tp7512
a(I-30
I4653
tp7513
a(I-30
I4654
tp7514
a(I-30
I4655
tp7515
a(I-30
I4656
tp7516
a(I-30
I4657
tp7517
a(I-30
I4658
tp7518
a(I-30
I4659
tp7519
a(I-30
I4660
tp7520
a(I-30
I4661
tp7521
a(I-30
I4662
tp7522
a(I-30
I4663
tp7523
a(I-30
I4664
tp7524
a(I-30
I4665
tp7525
a(I-30
I4666
tp7526
a(I-30
I4667
tp7527
a(I-30
I4668
tp7528
a(I-30
I4669
tp7529
a(I-30
I4670
tp7530
a(I-30
I4671
tp7531
a(I-30
I4672
tp7532
a(I-90
I4673
tp7533
a(I-30
I4674
tp7534
a(I-30
I4675
tp7535
a(I-135
I4676
tp7536
a(I-350
I4677
tp7537
a(I-75
I4678
tp7538
a(I-300
I4679
tp7539
a(I-85
I4680
tp7540
a(I-30
I4681
tp7541
a(I-30
I4682
tp7542
a(I-30
I4683
tp7543
a(I-30
I4684
tp7544
a(I-30
I4685
tp7545
a(I-30
I4686
tp7546
a(I-30
I4687
tp7547
a(I-30
I4688
tp7548
a(I-30
I4689
tp7549
a(I-30
I4690
tp7550
a(I-30
I4691
tp7551
a(I-30
I4692
tp7552
a(I-30
I4693
tp7553
a(I-30
I4694
tp7554
a(I-30
I4695
tp7555
a(I-30
I4696
tp7556
a(I-30
I4697
tp7557
a(I-30
I4698
tp7558
a(I-30
I4699
tp7559
a(I-30
I4700
tp7560
a(I-30
I4701
tp7561
a(I-30
I4702
tp7562
a(I-30
I4703
tp7563
a(I-30
I4704
tp7564
a(I-30
I4705
tp7565
a(I-30
I4706
tp7566
a(I-30
I4707
tp7567
a(I-30
I4708
tp7568
a(I-30
I4709
tp7569
a(I-30
I4710
tp7570
a(I-30
I4711
tp7571
a(I-30
I4712
tp7572
a(I-30
I4713
tp7573
a(I-30
I4714
tp7574
a(I-30
I4715
tp7575
a(I-30
I4716
tp7576
a(I-30
I4717
tp7577
a(I-30
I4718
tp7578
a(I-30
I4719
tp7579
a(I-30
I4720
tp7580
a(I-30
I4721
tp7581
a(I-30
I4722
tp7582
a(I-60
I4723
tp7583
a(I-70
I4724
tp7584
a(I-60
I4725
tp7585
a(I-30
I4726
tp7586
a(I-30
I4727
tp7587
a(I-30
I4728
tp7588
a(I-30
I4729
tp7589
a(I-30
I4730
tp7590
a(I-40
I4731
tp7591
a(I-30
I4732
tp7592
a(I-70
I4733
tp7593
a(I-30
I4734
tp7594
a(I-30
I4735
tp7595
a(I-30
I4736
tp7596
a(I-140
I4737
tp7597
a(I-70
I4738
tp7598
a(I-30
I4739
tp7599
a(I-30
I4740
tp7600
a(I-30
I4741
tp7601
a(I-30
I4742
tp7602
a(I-30
I4743
tp7603
a(I-30
I4744
tp7604
a(I-30
I4745
tp7605
a(I-30
I4746
tp7606
a(I-30
I4747
tp7607
a(I-30
I4748
tp7608
a(I-30
I4749
tp7609
a(I-30
I4750
tp7610
a(I-30
I4751
tp7611
a(I-30
I4752
tp7612
a(I-30
I4753
tp7613
a(I-30
I4754
tp7614
a(I-30
I4755
tp7615
a(I-30
I4756
tp7616
a(I-30
I4757
tp7617
a(I-30
I4758
tp7618
a(I-30
I4759
tp7619
a(I-30
I4760
tp7620
a(I-30
I4761
tp7621
a(I-30
I4762
tp7622
a(I-30
I4763
tp7623
a(I-30
I4764
tp7624
a(I-30
I4765
tp7625
a(I-30
I4766
tp7626
a(I-75
I4767
tp7627
a(I-30
I4768
tp7628
a(I-30
I4769
tp7629
a(I-75
I4770
tp7630
a(I-30
I4771
tp7631
a(I-30
I4772
tp7632
a(I-30
I4773
tp7633
a(I-30
I4774
tp7634
a(I-30
I4775
tp7635
a(I-30
I4776
tp7636
a(I-30
I4777
tp7637
a(I-30
I4778
tp7638
a(I-30
I4779
tp7639
a(I-30
I4780
tp7640
a(I-30
I4781
tp7641
a(I-30
I4782
tp7642
a(I-30
I4783
tp7643
a(I-30
I4784
tp7644
a(I-30
I4785
tp7645
a(I-30
I4786
tp7646
a(I-30
I4787
tp7647
a(I-30
I4788
tp7648
a(I-30
I4789
tp7649
a(I-30
I4790
tp7650
a(I-30
I4791
tp7651
a(I-30
I4792
tp7652
a(I-30
I4793
tp7653
a(I-30
I4794
tp7654
a(I-30
I4795
tp7655
a(I-30
I4796
tp7656
a(I-30
I4797
tp7657
a(I-30
I4798
tp7658
a(I-30
I4799
tp7659
a(I-30
I4800
tp7660
a(I-30
I4801
tp7661
a(I-30
I4802
tp7662
a(I-30
I4803
tp7663
a(I-30
I4804
tp7664
a(I-30
I4805
tp7665
a(I-30
I4806
tp7666
a(I-30
I4807
tp7667
a(I-30
I4808
tp7668
a(I-30
I4809
tp7669
a(I-30
I4810
tp7670
a(I-30
I4811
tp7671
a(I-30
I4812
tp7672
a(I-30
I4813
tp7673
a(I-30
I4814
tp7674
a(I-30
I4815
tp7675
a(I-30
I4816
tp7676
a(I-30
I4817
tp7677
a(I-35
I4818
tp7678
a(I-30
I4819
tp7679
a(I-30
I4820
tp7680
a(I-30
I4821
tp7681
a(I-30
I4822
tp7682
a(I-30
I4823
tp7683
a(I-30
I4824
tp7684
a(I-30
I4825
tp7685
a(I-30
I4826
tp7686
a(I-30
I4827
tp7687
a(I-280
I4828
tp7688
a(I-30
I4829
tp7689
a(I-30
I4830
tp7690
a(I-30
I4831
tp7691
a(I-30
I4832
tp7692
a(I-95
I4833
tp7693
a(I-30
I4834
tp7694
a(I-30
I4835
tp7695
a(I-350
I4836
tp7696
a(I-35
I4837
tp7697
a(I-30
I4838
tp7698
a(I-30
I4839
tp7699
a(I-30
I4840
tp7700
a(I-30
I4841
tp7701
a(I-30
I4842
tp7702
a(I-105
I4843
tp7703
a(I-30
I4844
tp7704
a(I-30
I4845
tp7705
a(I-30
I4846
tp7706
a(I-30
I4847
tp7707
a(I-30
I4848
tp7708
a(I-30
I4849
tp7709
a(I-30
I4850
tp7710
a(I-30
I4851
tp7711
a(I-30
I4852
tp7712
a(I-30
I4853
tp7713
a(I-30
I4854
tp7714
a(I-30
I4855
tp7715
a(I-30
I4856
tp7716
a(I-30
I4857
tp7717
a(I-55
I4858
tp7718
a(I-30
I4859
tp7719
a(I-30
I4860
tp7720
a(I-30
I4861
tp7721
a(I-30
I4862
tp7722
a(I-30
I4863
tp7723
a(I-30
I4864
tp7724
a(I-30
I4865
tp7725
a(I-30
I4866
tp7726
a(I-30
I4867
tp7727
a(I-30
I4868
tp7728
a(I-30
I4869
tp7729
a(I-30
I4870
tp7730
a(I-30
I4871
tp7731
a(I-30
I4872
tp7732
a(I-30
I4873
tp7733
a(I-30
I4874
tp7734
a(I-30
I4875
tp7735
a(I-30
I4876
tp7736
a(I-30
I4877
tp7737
a(I-30
I4878
tp7738
a(I-30
I4879
tp7739
a(I-30
I4880
tp7740
a(I-35
I4881
tp7741
a(I-30
I4882
tp7742
a(I-30
I4883
tp7743
a(I-30
I4884
tp7744
a(I-155
I4885
tp7745
a(I-30
I4886
tp7746
a(I-30
I4887
tp7747
a(I-30
I4888
tp7748
a(I-30
I4889
tp7749
a(I-30
I4890
tp7750
a(I-30
I4891
tp7751
a(I-30
I4892
tp7752
a(I-30
I4893
tp7753
a(I-30
I4894
tp7754
a(I-30
I4895
tp7755
a(I-30
I4896
tp7756
a(I-100
I4897
tp7757
a(I-140
I4898
tp7758
a(I-180
I4899
tp7759
a(I-90
I4900
tp7760
a(I-35
I4901
tp7761
a(I-30
I4902
tp7762
a(I-30
I4903
tp7763
a(I-30
I4904
tp7764
a(I-30
I4905
tp7765
a(I-30
I4906
tp7766
a(I-30
I4907
tp7767
a(I-30
I4908
tp7768
a(I-30
I4909
tp7769
a(I-30
I4910
tp7770
a(I-30
I4911
tp7771
a(I-30
I4912
tp7772
a(I-125
I4913
tp7773
a(I-30
I4914
tp7774
a(I-30
I4915
tp7775
a(I-30
I4916
tp7776
a(I-30
I4917
tp7777
a(I-30
I4918
tp7778
a(I-30
I4919
tp7779
a(I-30
I4920
tp7780
a(I-30
I4921
tp7781
a(I-30
I4922
tp7782
a(I-30
I4923
tp7783
a(I-30
I4924
tp7784
a(I-30
I4925
tp7785
a(I-30
I4926
tp7786
a(I-30
I4927
tp7787
a(I-30
I4928
tp7788
a(I-30
I4929
tp7789
a(I-30
I4930
tp7790
a(I-50
I4931
tp7791
a(I-30
I4932
tp7792
a(I-30
I4933
tp7793
a(I-30
I4934
tp7794
a(I-30
I4935
tp7795
a(I-30
I4936
tp7796
a(I-30
I4937
tp7797
a(I-30
I4938
tp7798
a(I-30
I4939
tp7799
a(I-30
I4940
tp7800
a(I-30
I4941
tp7801
a(I-30
I4942
tp7802
a(I-30
I4943
tp7803
a(I-30
I4944
tp7804
a(I-30
I4945
tp7805
a(I-30
I4946
tp7806
a(I-30
I4947
tp7807
a(I-30
I4948
tp7808
a(I-30
I4949
tp7809
a(I-30
I4950
tp7810
a(I-30
I4951
tp7811
a(I-30
I4952
tp7812
a(I-30
I4953
tp7813
a(I-30
I4954
tp7814
a(I-30
I4955
tp7815
a(I-30
I4956
tp7816
a(I-30
I4957
tp7817
a(I-30
I4958
tp7818
a(I-30
I4959
tp7819
a(I-30
I4960
tp7820
a(I-30
I4961
tp7821
a(I-180
I4962
tp7822
a(I-30
I4963
tp7823
a(I-30
I4964
tp7824
a(I-30
I4965
tp7825
a(I-30
I4966
tp7826
a(I-30
I4967
tp7827
a(I-30
I4968
tp7828
a(I-30
I4969
tp7829
a(I-30
I4970
tp7830
a(I-30
I4971
tp7831
a(I-30
I4972
tp7832
a(I-30
I4973
tp7833
a(I-30
I4974
tp7834
a(I-30
I4975
tp7835
a(I-30
I4976
tp7836
a(I-30
I4977
tp7837
a(I-30
I4978
tp7838
a(I-30
I4979
tp7839
a(I-30
I4980
tp7840
a(I-30
I4981
tp7841
a(I-30
I4982
tp7842
a(I-30
I4983
tp7843
a(I-30
I4984
tp7844
a(I-30
I4985
tp7845
a(I-30
I4986
tp7846
a(I-30
I4987
tp7847
a(I-30
I4988
tp7848
a(I-30
I4989
tp7849
a(I-30
I4990
tp7850
a(I-30
I4991
tp7851
a(I-30
I4992
tp7852
a(I-30
I4993
tp7853
a(I-30
I4994
tp7854
a(I-30
I4995
tp7855
a(I-30
I4996
tp7856
a(I-30
I4997
tp7857
a(I-30
I4998
tp7858
a(I-30
I4999
tp7859
as.