(dp0
S'policy'
p1
(dp2
(I50
I3
tp3
cnumpy.core.multiarray
scalar
p4
(cnumpy
dtype
p5
(S'i8'
p6
I0
I1
tp7
Rp8
(I3
S'<'
p9
NNNI-1
I-1
I0
tp10
bS'\x02\x00\x00\x00\x00\x00\x00\x00'
p11
tp12
Rp13
s(I70
I11
tp14
g4
(g8
S'\x01\x00\x00\x00\x00\x00\x00\x00'
p15
tp16
Rp17
s(I90
I0
tp18
g4
(g8
S'\x01\x00\x00\x00\x00\x00\x00\x00'
p19
tp20
Rp21
s(I70
I0
tp22
g4
(g8
S'\x01\x00\x00\x00\x00\x00\x00\x00'
p23
tp24
Rp25
s(I80
I0
tp26
g4
(g8
S'\x01\x00\x00\x00\x00\x00\x00\x00'
p27
tp28
Rp29
s(I90
I4
tp30
g4
(g8
S'\x00\x00\x00\x00\x00\x00\x00\x00'
p31
tp32
Rp33
s(I60
I0
tp34
g4
(g8
S'\x01\x00\x00\x00\x00\x00\x00\x00'
p35
tp36
Rp37
s(I20
I10
tp38
g4
(g8
S'\x01\x00\x00\x00\x00\x00\x00\x00'
p39
tp40
Rp41
s(I100
I16
tp42
g4
(g8
S'\x01\x00\x00\x00\x00\x00\x00\x00'
p43
tp44
Rp45
s(I100
I1
tp46
g4
(g8
S'\x00\x00\x00\x00\x00\x00\x00\x00'
p47
tp48
Rp49
s(I90
I13
tp50
g4
(g8
S'\x01\x00\x00\x00\x00\x00\x00\x00'
p51
tp52
Rp53
s(I30
I13
tp54
g4
(g8
S'\x01\x00\x00\x00\x00\x00\x00\x00'
p55
tp56
Rp57
s(I80
I12
tp58
g4
(g8
S'\x01\x00\x00\x00\x00\x00\x00\x00'
p59
tp60
Rp61
s(I80
I7
tp62
g4
(g8
S'\x01\x00\x00\x00\x00\x00\x00\x00'
p63
tp64
Rp65
s(I50
I0
tp66
g4
(g8
S'\x01\x00\x00\x00\x00\x00\x00\x00'
p67
tp68
Rp69
s(I90
I6
tp70
g4
(g8
S'\x01\x00\x00\x00\x00\x00\x00\x00'
p71
tp72
Rp73
s(I80
I5
tp74
g4
(g8
S'\x02\x00\x00\x00\x00\x00\x00\x00'
p75
tp76
Rp77
s(I30
I0
tp78
g4
(g8
S'\x01\x00\x00\x00\x00\x00\x00\x00'
p79
tp80
Rp81
s(I70
I8
tp82
g4
(g8
S'\x01\x00\x00\x00\x00\x00\x00\x00'
p83
tp84
Rp85
s(I40
I0
tp86
g4
(g8
S'\x01\x00\x00\x00\x00\x00\x00\x00'
p87
tp88
Rp89
s(I100
I14
tp90
g4
(g8
S'\x01\x00\x00\x00\x00\x00\x00\x00'
p91
tp92
Rp93
s(I20
I0
tp94
g4
(g8
S'\x01\x00\x00\x00\x00\x00\x00\x00'
p95
tp96
Rp97
s(I90
I17
tp98
g4
(g8
S'\x01\x00\x00\x00\x00\x00\x00\x00'
p99
tp100
Rp101
s(I70
I5
tp102
g4
(g8
S'\x01\x00\x00\x00\x00\x00\x00\x00'
p103
tp104
Rp105
s(I50
I8
tp106
g4
(g8
S'\x01\x00\x00\x00\x00\x00\x00\x00'
p107
tp108
Rp109
s(I70
I14
tp110
g4
(g8
S'\x01\x00\x00\x00\x00\x00\x00\x00'
p111
tp112
Rp113
s(I40
I5
tp114
g4
(g8
S'\x02\x00\x00\x00\x00\x00\x00\x00'
p115
tp116
Rp117
s(I100
I6
tp118
g4
(g8
S'\x01\x00\x00\x00\x00\x00\x00\x00'
p119
tp120
Rp121
s(I90
I15
tp122
g4
(g8
S'\x01\x00\x00\x00\x00\x00\x00\x00'
p123
tp124
Rp125
s(I0
I0
tp126
g4
(g8
S'\x00\x00\x00\x00\x00\x00\x00\x00'
p127
tp128
Rp129
s(I50
I12
tp130
g4
(g8
S'\x01\x00\x00\x00\x00\x00\x00\x00'
p131
tp132
Rp133
s(I100
I10
tp134
g4
(g8
S'\x01\x00\x00\x00\x00\x00\x00\x00'
p135
tp136
Rp137
s(I40
I10
tp138
g4
(g8
S'\x01\x00\x00\x00\x00\x00\x00\x00'
p139
tp140
Rp141
s(I80
I2
tp142
g4
(g8
S'\x00\x00\x00\x00\x00\x00\x00\x00'
p143
tp144
Rp145
s(I50
I16
tp146
g4
(g8
S'\x01\x00\x00\x00\x00\x00\x00\x00'
p147
tp148
Rp149
s(I70
I2
tp150
g4
(g8
S'\x01\x00\x00\x00\x00\x00\x00\x00'
p151
tp152
Rp153
s(I90
I11
tp154
g4
(g8
S'\x01\x00\x00\x00\x00\x00\x00\x00'
p155
tp156
Rp157
s(I100
I3
tp158
g4
(g8
S'\x01\x00\x00\x00\x00\x00\x00\x00'
p159
tp160
Rp161
s(I10
I0
tp162
g4
(g8
S'\x01\x00\x00\x00\x00\x00\x00\x00'
p163
tp164
Rp165
s(I60
I13
tp166
g4
(g8
S'\x01\x00\x00\x00\x00\x00\x00\x00'
p167
tp168
Rp169
s(I70
I17
tp170
g4
(g8
S'\x01\x00\x00\x00\x00\x00\x00\x00'
p171
tp172
Rp173
s(I90
I2
tp174
g4
(g8
S'\x01\x00\x00\x00\x00\x00\x00\x00'
p175
tp176
Rp177
s(I60
I6
tp178
g4
(g8
S'\x01\x00\x00\x00\x00\x00\x00\x00'
p179
tp180
Rp181
s(I40
I15
tp182
g4
(g8
S'\x01\x00\x00\x00\x00\x00\x00\x00'
p183
tp184
Rp185
s(I30
I6
tp186
g4
(g8
S'\x01\x00\x00\x00\x00\x00\x00\x00'
p187
tp188
Rp189
s(I80
I17
tp190
g4
(g8
S'\x01\x00\x00\x00\x00\x00\x00\x00'
p191
tp192
Rp193
s(I80
I10
tp194
g4
(g8
S'\x01\x00\x00\x00\x00\x00\x00\x00'
p195
tp196
Rp197
s(I60
I16
tp198
g4
(g8
S'\x01\x00\x00\x00\x00\x00\x00\x00'
p199
tp200
Rp201
s(I60
I10
tp202
g4
(g8
S'\x01\x00\x00\x00\x00\x00\x00\x00'
p203
tp204
Rp205
s(I100
I8
tp206
g4
(g8
S'\x01\x00\x00\x00\x00\x00\x00\x00'
p207
tp208
Rp209
s(I60
I3
tp210
g4
(g8
S'\x01\x00\x00\x00\x00\x00\x00\x00'
p211
tp212
Rp213
s(I90
I8
tp214
g4
(g8
S'\x01\x00\x00\x00\x00\x00\x00\x00'
p215
tp216
Rp217
s(I100
I12
tp218
g4
(g8
S'\x01\x00\x00\x00\x00\x00\x00\x00'
p219
tp220
Rp221
s(I80
I15
tp222
g4
(g8
S'\x01\x00\x00\x00\x00\x00\x00\x00'
p223
tp224
Rp225
s(I100
I18
tp226
g4
(g8
S'\x01\x00\x00\x00\x00\x00\x00\x00'
p227
tp228
Rp229
s(I100
I0
tp230
g4
(g8
S'\x01\x00\x00\x00\x00\x00\x00\x00'
p231
tp232
Rp233
ssS'rewards'
p234
(lp235
(I-575
I0
tp236
a(I-510
I1
tp237
a(I-515
I2
tp238
a(I-565
I3
tp239
a(I-550
I4
tp240
a(I-540
I5
tp241
a(I-540
I6
tp242
a(I-485
I7
tp243
a(I-530
I8
tp244
a(I-530
I9
tp245
a(I-490
I10
tp246
a(I-500
I11
tp247
a(I-555
I12
tp248
a(I-445
I13
tp249
a(I-465
I14
tp250
a(I-520
I15
tp251
a(I-500
I16
tp252
a(I-445
I17
tp253
a(I-475
I18
tp254
a(I-485
I19
tp255
a(I-490
I20
tp256
a(I-475
I21
tp257
a(I-485
I22
tp258
a(I-355
I23
tp259
a(I-405
I24
tp260
a(I-460
I25
tp261
a(I-480
I26
tp262
a(I-405
I27
tp263
a(I-445
I28
tp264
a(I-420
I29
tp265
a(I-485
I30
tp266
a(I-415
I31
tp267
a(I-445
I32
tp268
a(I-470
I33
tp269
a(I-465
I34
tp270
a(I-315
I35
tp271
a(I-490
I36
tp272
a(I-400
I37
tp273
a(I-420
I38
tp274
a(I-430
I39
tp275
a(I-395
I40
tp276
a(I-445
I41
tp277
a(I-415
I42
tp278
a(I-420
I43
tp279
a(I-410
I44
tp280
a(I-435
I45
tp281
a(I-430
I46
tp282
a(I-390
I47
tp283
a(I-345
I48
tp284
a(I-360
I49
tp285
a(I-380
I50
tp286
a(I-395
I51
tp287
a(I-400
I52
tp288
a(I-445
I53
tp289
a(I-350
I54
tp290
a(I-320
I55
tp291
a(I-385
I56
tp292
a(I-375
I57
tp293
a(I-385
I58
tp294
a(I-330
I59
tp295
a(I-420
I60
tp296
a(I-370
I61
tp297
a(I-375
I62
tp298
a(I-395
I63
tp299
a(I-385
I64
tp300
a(I-360
I65
tp301
a(I-285
I66
tp302
a(I-365
I67
tp303
a(I-385
I68
tp304
a(I-295
I69
tp305
a(I-615
I70
tp306
a(I-425
I71
tp307
a(I-335
I72
tp308
a(I-375
I73
tp309
a(I-395
I74
tp310
a(I-385
I75
tp311
a(I-340
I76
tp312
a(I-345
I77
tp313
a(I-320
I78
tp314
a(I-335
I79
tp315
a(I-350
I80
tp316
a(I-295
I81
tp317
a(I-325
I82
tp318
a(I-355
I83
tp319
a(I-370
I84
tp320
a(I-220
I85
tp321
a(I-355
I86
tp322
a(I-330
I87
tp323
a(I-265
I88
tp324
a(I-220
I89
tp325
a(I-705
I90
tp326
a(I-310
I91
tp327
a(I-355
I92
tp328
a(I-385
I93
tp329
a(I-345
I94
tp330
a(I-345
I95
tp331
a(I-285
I96
tp332
a(I-370
I97
tp333
a(I-305
I98
tp334
a(I-335
I99
tp335
a(I-330
I100
tp336
a(I-315
I101
tp337
a(I-380
I102
tp338
a(I-260
I103
tp339
a(I-380
I104
tp340
a(I-280
I105
tp341
a(I-365
I106
tp342
a(I-340
I107
tp343
a(I-650
I108
tp344
a(I-360
I109
tp345
a(I-290
I110
tp346
a(I-280
I111
tp347
a(I-330
I112
tp348
a(I-245
I113
tp349
a(I-285
I114
tp350
a(I-240
I115
tp351
a(I-325
I116
tp352
a(I-290
I117
tp353
a(I-275
I118
tp354
a(I-325
I119
tp355
a(I-255
I120
tp356
a(I-235
I121
tp357
a(I-240
I122
tp358
a(I-270
I123
tp359
a(I-280
I124
tp360
a(I-240
I125
tp361
a(I-215
I126
tp362
a(I-250
I127
tp363
a(I-335
I128
tp364
a(I-200
I129
tp365
a(I-280
I130
tp366
a(I-290
I131
tp367
a(I-215
I132
tp368
a(I-340
I133
tp369
a(I-245
I134
tp370
a(I-265
I135
tp371
a(I-290
I136
tp372
a(I-565
I137
tp373
a(I-190
I138
tp374
a(I-210
I139
tp375
a(I-665
I140
tp376
a(I-220
I141
tp377
a(I-290
I142
tp378
a(I-215
I143
tp379
a(I-280
I144
tp380
a(I-255
I145
tp381
a(I-295
I146
tp382
a(I-265
I147
tp383
a(I-240
I148
tp384
a(I-210
I149
tp385
a(I-315
I150
tp386
a(I-235
I151
tp387
a(I-245
I152
tp388
a(I-210
I153
tp389
a(I-230
I154
tp390
a(I-245
I155
tp391
a(I-655
I156
tp392
a(I-235
I157
tp393
a(I-235
I158
tp394
a(I-240
I159
tp395
a(I-240
I160
tp396
a(I-200
I161
tp397
a(I-315
I162
tp398
a(I-220
I163
tp399
a(I-215
I164
tp400
a(I-320
I165
tp401
a(I-225
I166
tp402
a(I-310
I167
tp403
a(I-230
I168
tp404
a(I-280
I169
tp405
a(I-210
I170
tp406
a(I-230
I171
tp407
a(I-240
I172
tp408
a(I-175
I173
tp409
a(I-250
I174
tp410
a(I-225
I175
tp411
a(I-195
I176
tp412
a(I-165
I177
tp413
a(I-240
I178
tp414
a(I-280
I179
tp415
a(I-265
I180
tp416
a(I-225
I181
tp417
a(I-170
I182
tp418
a(I-260
I183
tp419
a(I-250
I184
tp420
a(I-165
I185
tp421
a(I-235
I186
tp422
a(I-195
I187
tp423
a(I-550
I188
tp424
a(I-230
I189
tp425
a(I-230
I190
tp426
a(I-260
I191
tp427
a(I-195
I192
tp428
a(I-205
I193
tp429
a(I-180
I194
tp430
a(I-185
I195
tp431
a(I-170
I196
tp432
a(I-185
I197
tp433
a(I-625
I198
tp434
a(I-155
I199
tp435
a(I-165
I200
tp436
a(I-200
I201
tp437
a(I-155
I202
tp438
a(I-195
I203
tp439
a(I-200
I204
tp440
a(I-225
I205
tp441
a(I-175
I206
tp442
a(I-175
I207
tp443
a(I-190
I208
tp444
a(I-210
I209
tp445
a(I-195
I210
tp446
a(I-155
I211
tp447
a(I-230
I212
tp448
a(I-195
I213
tp449
a(I-185
I214
tp450
a(I-175
I215
tp451
a(I-285
I216
tp452
a(I-160
I217
tp453
a(I-190
I218
tp454
a(I-190
I219
tp455
a(I-120
I220
tp456
a(I-175
I221
tp457
a(I-185
I222
tp458
a(I-225
I223
tp459
a(I-175
I224
tp460
a(I-215
I225
tp461
a(I-170
I226
tp462
a(I-210
I227
tp463
a(I-185
I228
tp464
a(I-170
I229
tp465
a(I-210
I230
tp466
a(I-150
I231
tp467
a(I-185
I232
tp468
a(I-180
I233
tp469
a(I-170
I234
tp470
a(I-175
I235
tp471
a(I-130
I236
tp472
a(I-215
I237
tp473
a(I-145
I238
tp474
a(I-155
I239
tp475
a(I-210
I240
tp476
a(I-135
I241
tp477
a(I-170
I242
tp478
a(I-150
I243
tp479
a(I-225
I244
tp480
a(I-170
I245
tp481
a(I-205
I246
tp482
a(I-150
I247
tp483
a(I-170
I248
tp484
a(I-630
I249
tp485
a(I-180
I250
tp486
a(I-190
I251
tp487
a(I-115
I252
tp488
a(I-575
I253
tp489
a(I-110
I254
tp490
a(I-175
I255
tp491
a(I-175
I256
tp492
a(I-220
I257
tp493
a(I-160
I258
tp494
a(I-600
I259
tp495
a(I-195
I260
tp496
a(I-140
I261
tp497
a(I-130
I262
tp498
a(I-585
I263
tp499
a(I-125
I264
tp500
a(I-120
I265
tp501
a(I-140
I266
tp502
a(I-185
I267
tp503
a(I-145
I268
tp504
a(I-110
I269
tp505
a(I-595
I270
tp506
a(I-130
I271
tp507
a(I-105
I272
tp508
a(I-175
I273
tp509
a(I-145
I274
tp510
a(I-115
I275
tp511
a(I-135
I276
tp512
a(I-175
I277
tp513
a(I-115
I278
tp514
a(I-140
I279
tp515
a(I-125
I280
tp516
a(I-115
I281
tp517
a(I-135
I282
tp518
a(I-160
I283
tp519
a(I-110
I284
tp520
a(I-130
I285
tp521
a(I-160
I286
tp522
a(I-115
I287
tp523
a(I-120
I288
tp524
a(I-125
I289
tp525
a(I-130
I290
tp526
a(I-130
I291
tp527
a(I-165
I292
tp528
a(I-135
I293
tp529
a(I-105
I294
tp530
a(I-125
I295
tp531
a(I-115
I296
tp532
a(I-120
I297
tp533
a(I-160
I298
tp534
a(I-120
I299
tp535
a(I-115
I300
tp536
a(I-145
I301
tp537
a(I-160
I302
tp538
a(I-130
I303
tp539
a(I-130
I304
tp540
a(I-125
I305
tp541
a(I-110
I306
tp542
a(I-160
I307
tp543
a(I-140
I308
tp544
a(I-170
I309
tp545
a(I-115
I310
tp546
a(I-155
I311
tp547
a(I-145
I312
tp548
a(I-105
I313
tp549
a(I-120
I314
tp550
a(I-145
I315
tp551
a(I-165
I316
tp552
a(I-105
I317
tp553
a(I-155
I318
tp554
a(I-125
I319
tp555
a(I-550
I320
tp556
a(I-140
I321
tp557
a(I-560
I322
tp558
a(I-130
I323
tp559
a(I-105
I324
tp560
a(I-135
I325
tp561
a(I-130
I326
tp562
a(I-120
I327
tp563
a(I-135
I328
tp564
a(I-115
I329
tp565
a(I-535
I330
tp566
a(I-120
I331
tp567
a(I-170
I332
tp568
a(I-85
I333
tp569
a(I-120
I334
tp570
a(I-85
I335
tp571
a(I-105
I336
tp572
a(I-145
I337
tp573
a(I-90
I338
tp574
a(I-160
I339
tp575
a(I-100
I340
tp576
a(I-145
I341
tp577
a(I-120
I342
tp578
a(I-105
I343
tp579
a(I-575
I344
tp580
a(I-100
I345
tp581
a(I-135
I346
tp582
a(I-105
I347
tp583
a(I-135
I348
tp584
a(I-130
I349
tp585
a(I-110
I350
tp586
a(I-90
I351
tp587
a(I-90
I352
tp588
a(I-110
I353
tp589
a(I-110
I354
tp590
a(I-90
I355
tp591
a(I-145
I356
tp592
a(I-100
I357
tp593
a(I-145
I358
tp594
a(I-120
I359
tp595
a(I-105
I360
tp596
a(I-120
I361
tp597
a(I-105
I362
tp598
a(I-120
I363
tp599
a(I-150
I364
tp600
a(I-140
I365
tp601
a(I-100
I366
tp602
a(I-570
I367
tp603
a(I-85
I368
tp604
a(I-135
I369
tp605
a(I-110
I370
tp606
a(I-135
I371
tp607
a(I-90
I372
tp608
a(I-115
I373
tp609
a(I-160
I374
tp610
a(I-110
I375
tp611
a(I-145
I376
tp612
a(I-115
I377
tp613
a(I-105
I378
tp614
a(I-90
I379
tp615
a(I-70
I380
tp616
a(I-95
I381
tp617
a(I-75
I382
tp618
a(I-75
I383
tp619
a(I-155
I384
tp620
a(I-95
I385
tp621
a(I-130
I386
tp622
a(I-115
I387
tp623
a(I-125
I388
tp624
a(I-90
I389
tp625
a(I-95
I390
tp626
a(I-115
I391
tp627
a(I-105
I392
tp628
a(I-135
I393
tp629
a(I-150
I394
tp630
a(I-95
I395
tp631
a(I-90
I396
tp632
a(I-135
I397
tp633
a(I-85
I398
tp634
a(I-120
I399
tp635
a(I-105
I400
tp636
a(I-120
I401
tp637
a(I-105
I402
tp638
a(I-100
I403
tp639
a(I-90
I404
tp640
a(I-100
I405
tp641
a(I-105
I406
tp642
a(I-135
I407
tp643
a(I-135
I408
tp644
a(I-110
I409
tp645
a(I-140
I410
tp646
a(I-65
I411
tp647
a(I-90
I412
tp648
a(I-80
I413
tp649
a(I-75
I414
tp650
a(I-70
I415
tp651
a(I-80
I416
tp652
a(I-120
I417
tp653
a(I-95
I418
tp654
a(I-95
I419
tp655
a(I-110
I420
tp656
a(I-135
I421
tp657
a(I-135
I422
tp658
a(I-90
I423
tp659
a(I-90
I424
tp660
a(I-85
I425
tp661
a(I-100
I426
tp662
a(I-115
I427
tp663
a(I-80
I428
tp664
a(I-90
I429
tp665
a(I-115
I430
tp666
a(I-100
I431
tp667
a(I-105
I432
tp668
a(I-125
I433
tp669
a(I-80
I434
tp670
a(I-95
I435
tp671
a(I-95
I436
tp672
a(I-140
I437
tp673
a(I-95
I438
tp674
a(I-80
I439
tp675
a(I-70
I440
tp676
a(I-105
I441
tp677
a(I-100
I442
tp678
a(I-120
I443
tp679
a(I-130
I444
tp680
a(I-140
I445
tp681
a(I-130
I446
tp682
a(I-115
I447
tp683
a(I-125
I448
tp684
a(I-80
I449
tp685
a(I-60
I450
tp686
a(I-60
I451
tp687
a(I-70
I452
tp688
a(I-110
I453
tp689
a(I-85
I454
tp690
a(I-105
I455
tp691
a(I-70
I456
tp692
a(I-105
I457
tp693
a(I-105
I458
tp694
a(I-85
I459
tp695
a(I-65
I460
tp696
a(I-110
I461
tp697
a(I-85
I462
tp698
a(I-130
I463
tp699
a(I-100
I464
tp700
a(I-80
I465
tp701
a(I-65
I466
tp702
a(I-70
I467
tp703
a(I-105
I468
tp704
a(I-90
I469
tp705
a(I-65
I470
tp706
a(I-135
I471
tp707
a(I-75
I472
tp708
a(I-120
I473
tp709
a(I-180
I474
tp710
a(I-130
I475
tp711
a(I-125
I476
tp712
a(I-105
I477
tp713
a(I-80
I478
tp714
a(I-120
I479
tp715
a(I-85
I480
tp716
a(I-110
I481
tp717
a(I-85
I482
tp718
a(I-170
I483
tp719
a(I-100
I484
tp720
a(I-85
I485
tp721
a(I-115
I486
tp722
a(I-95
I487
tp723
a(I-70
I488
tp724
a(I-75
I489
tp725
a(I-80
I490
tp726
a(I-85
I491
tp727
a(I-90
I492
tp728
a(I-90
I493
tp729
a(I-100
I494
tp730
a(I-125
I495
tp731
a(I-90
I496
tp732
a(I-55
I497
tp733
a(I-80
I498
tp734
a(I-100
I499
tp735
a(I-90
I500
tp736
a(I-95
I501
tp737
a(I-75
I502
tp738
a(I-215
I503
tp739
a(I-100
I504
tp740
a(I-220
I505
tp741
a(I-245
I506
tp742
a(I-90
I507
tp743
a(I-65
I508
tp744
a(I-75
I509
tp745
a(I-60
I510
tp746
a(I-75
I511
tp747
a(I-75
I512
tp748
a(I-95
I513
tp749
a(I-95
I514
tp750
a(I-95
I515
tp751
a(I-200
I516
tp752
a(I-140
I517
tp753
a(I-75
I518
tp754
a(I-85
I519
tp755
a(I-375
I520
tp756
a(I-105
I521
tp757
a(I-70
I522
tp758
a(I-200
I523
tp759
a(I-75
I524
tp760
a(I-110
I525
tp761
a(I-80
I526
tp762
a(I-110
I527
tp763
a(I-90
I528
tp764
a(I-95
I529
tp765
a(I-105
I530
tp766
a(I-85
I531
tp767
a(I-140
I532
tp768
a(I-90
I533
tp769
a(I-85
I534
tp770
a(I-515
I535
tp771
a(I-115
I536
tp772
a(I-65
I537
tp773
a(I-205
I538
tp774
a(I-125
I539
tp775
a(I-70
I540
tp776
a(I-105
I541
tp777
a(I-70
I542
tp778
a(I-85
I543
tp779
a(I-80
I544
tp780
a(I-75
I545
tp781
a(I-325
I546
tp782
a(I-135
I547
tp783
a(I-85
I548
tp784
a(I-140
I549
tp785
a(I-85
I550
tp786
a(I-110
I551
tp787
a(I-250
I552
tp788
a(I-220
I553
tp789
a(I-165
I554
tp790
a(I-75
I555
tp791
a(I-125
I556
tp792
a(I-110
I557
tp793
a(I-80
I558
tp794
a(I-100
I559
tp795
a(I-130
I560
tp796
a(I-120
I561
tp797
a(I-65
I562
tp798
a(I-150
I563
tp799
a(I-95
I564
tp800
a(I-135
I565
tp801
a(I-60
I566
tp802
a(I-75
I567
tp803
a(I-60
I568
tp804
a(I-130
I569
tp805
a(I-60
I570
tp806
a(I-45
I571
tp807
a(I-55
I572
tp808
a(I-65
I573
tp809
a(I-230
I574
tp810
a(I-75
I575
tp811
a(I-110
I576
tp812
a(I-80
I577
tp813
a(I-55
I578
tp814
a(I-45
I579
tp815
a(I-315
I580
tp816
a(I-65
I581
tp817
a(I-90
I582
tp818
a(I-130
I583
tp819
a(I-55
I584
tp820
a(I-75
I585
tp821
a(I-95
I586
tp822
a(I-80
I587
tp823
a(I-330
I588
tp824
a(I-470
I589
tp825
a(I-55
I590
tp826
a(I-85
I591
tp827
a(I-310
I592
tp828
a(I-110
I593
tp829
a(I-110
I594
tp830
a(I-135
I595
tp831
a(I-95
I596
tp832
a(I-90
I597
tp833
a(I-95
I598
tp834
a(I-75
I599
tp835
a(I-75
I600
tp836
a(I-115
I601
tp837
a(I-95
I602
tp838
a(I-110
I603
tp839
a(I-105
I604
tp840
a(I-120
I605
tp841
a(I-85
I606
tp842
a(I-75
I607
tp843
a(I-165
I608
tp844
a(I-70
I609
tp845
a(I-70
I610
tp846
a(I-95
I611
tp847
a(I-80
I612
tp848
a(I-60
I613
tp849
a(I-70
I614
tp850
a(I-65
I615
tp851
a(I-110
I616
tp852
a(I-85
I617
tp853
a(I-115
I618
tp854
a(I-185
I619
tp855
a(I-55
I620
tp856
a(I-120
I621
tp857
a(I-135
I622
tp858
a(I-90
I623
tp859
a(I-105
I624
tp860
a(I-65
I625
tp861
a(I-120
I626
tp862
a(I-135
I627
tp863
a(I-255
I628
tp864
a(I-75
I629
tp865
a(I-80
I630
tp866
a(I-75
I631
tp867
a(I-60
I632
tp868
a(I-105
I633
tp869
a(I-80
I634
tp870
a(I-65
I635
tp871
a(I-65
I636
tp872
a(I-55
I637
tp873
a(I-45
I638
tp874
a(I-150
I639
tp875
a(I-80
I640
tp876
a(I-80
I641
tp877
a(I-50
I642
tp878
a(I-50
I643
tp879
a(I-70
I644
tp880
a(I-85
I645
tp881
a(I-95
I646
tp882
a(I-70
I647
tp883
a(I-110
I648
tp884
a(I-90
I649
tp885
a(I-80
I650
tp886
a(I-60
I651
tp887
a(I-70
I652
tp888
a(I-150
I653
tp889
a(I-195
I654
tp890
a(I-115
I655
tp891
a(I-70
I656
tp892
a(I-75
I657
tp893
a(I-180
I658
tp894
a(I-100
I659
tp895
a(I-130
I660
tp896
a(I-75
I661
tp897
a(I-90
I662
tp898
a(I-65
I663
tp899
a(I-50
I664
tp900
a(I-65
I665
tp901
a(I-65
I666
tp902
a(I-65
I667
tp903
a(I-65
I668
tp904
a(I-80
I669
tp905
a(I-60
I670
tp906
a(I-105
I671
tp907
a(I-185
I672
tp908
a(I-165
I673
tp909
a(I-100
I674
tp910
a(I-90
I675
tp911
a(I-105
I676
tp912
a(I-65
I677
tp913
a(I-545
I678
tp914
a(I-175
I679
tp915
a(I-80
I680
tp916
a(I-270
I681
tp917
a(I-185
I682
tp918
a(I-85
I683
tp919
a(I-80
I684
tp920
a(I-95
I685
tp921
a(I-165
I686
tp922
a(I-140
I687
tp923
a(I-70
I688
tp924
a(I-90
I689
tp925
a(I-80
I690
tp926
a(I-60
I691
tp927
a(I-105
I692
tp928
a(I-140
I693
tp929
a(I-95
I694
tp930
a(I-80
I695
tp931
a(I-50
I696
tp932
a(I-495
I697
tp933
a(I-50
I698
tp934
a(I-45
I699
tp935
a(I-40
I700
tp936
a(I-55
I701
tp937
a(I-70
I702
tp938
a(I-75
I703
tp939
a(I-80
I704
tp940
a(I-80
I705
tp941
a(I-75
I706
tp942
a(I-75
I707
tp943
a(I-75
I708
tp944
a(I-100
I709
tp945
a(I-95
I710
tp946
a(I-230
I711
tp947
a(I-100
I712
tp948
a(I-175
I713
tp949
a(I-140
I714
tp950
a(I-65
I715
tp951
a(I-60
I716
tp952
a(I-75
I717
tp953
a(I-60
I718
tp954
a(I-60
I719
tp955
a(I-60
I720
tp956
a(I-165
I721
tp957
a(I-180
I722
tp958
a(I-60
I723
tp959
a(I-65
I724
tp960
a(I-45
I725
tp961
a(I-230
I726
tp962
a(I-65
I727
tp963
a(I-45
I728
tp964
a(I-60
I729
tp965
a(I-40
I730
tp966
a(I-55
I731
tp967
a(I-40
I732
tp968
a(I-40
I733
tp969
a(I-55
I734
tp970
a(I-50
I735
tp971
a(I-55
I736
tp972
a(I-45
I737
tp973
a(I-50
I738
tp974
a(I-40
I739
tp975
a(I-40
I740
tp976
a(I-65
I741
tp977
a(I-60
I742
tp978
a(I-40
I743
tp979
a(I-530
I744
tp980
a(I-125
I745
tp981
a(I-45
I746
tp982
a(I-150
I747
tp983
a(I-50
I748
tp984
a(I-65
I749
tp985
a(I-60
I750
tp986
a(I-40
I751
tp987
a(I-40
I752
tp988
a(I-45
I753
tp989
a(I-45
I754
tp990
a(I-50
I755
tp991
a(I-40
I756
tp992
a(I-55
I757
tp993
a(I-70
I758
tp994
a(I-70
I759
tp995
a(I-110
I760
tp996
a(I-110
I761
tp997
a(I-535
I762
tp998
a(I-80
I763
tp999
a(I-50
I764
tp1000
a(I-45
I765
tp1001
a(I-50
I766
tp1002
a(I-50
I767
tp1003
a(I-140
I768
tp1004
a(I-40
I769
tp1005
a(I-50
I770
tp1006
a(I-45
I771
tp1007
a(I-50
I772
tp1008
a(I-50
I773
tp1009
a(I-50
I774
tp1010
a(I-50
I775
tp1011
a(I-45
I776
tp1012
a(I-65
I777
tp1013
a(I-40
I778
tp1014
a(I-75
I779
tp1015
a(I-40
I780
tp1016
a(I-55
I781
tp1017
a(I-45
I782
tp1018
a(I-50
I783
tp1019
a(I-40
I784
tp1020
a(I-50
I785
tp1021
a(I-40
I786
tp1022
a(I-55
I787
tp1023
a(I-55
I788
tp1024
a(I-40
I789
tp1025
a(I-55
I790
tp1026
a(I-45
I791
tp1027
a(I-60
I792
tp1028
a(I-50
I793
tp1029
a(I-40
I794
tp1030
a(I-55
I795
tp1031
a(I-40
I796
tp1032
a(I-40
I797
tp1033
a(I-40
I798
tp1034
a(I-40
I799
tp1035
a(I-100
I800
tp1036
a(I-40
I801
tp1037
a(I-55
I802
tp1038
a(I-45
I803
tp1039
a(I-40
I804
tp1040
a(I-65
I805
tp1041
a(I-45
I806
tp1042
a(I-40
I807
tp1043
a(I-50
I808
tp1044
a(I-60
I809
tp1045
a(I-50
I810
tp1046
a(I-40
I811
tp1047
a(I-40
I812
tp1048
a(I-40
I813
tp1049
a(I-50
I814
tp1050
a(I-45
I815
tp1051
a(I-55
I816
tp1052
a(I-50
I817
tp1053
a(I-45
I818
tp1054
a(I-50
I819
tp1055
a(I-55
I820
tp1056
a(I-45
I821
tp1057
a(I-40
I822
tp1058
a(I-50
I823
tp1059
a(I-60
I824
tp1060
a(I-45
I825
tp1061
a(I-50
I826
tp1062
a(I-50
I827
tp1063
a(I-40
I828
tp1064
a(I-40
I829
tp1065
a(I-40
I830
tp1066
a(I-45
I831
tp1067
a(I-40
I832
tp1068
a(I-45
I833
tp1069
a(I-40
I834
tp1070
a(I-40
I835
tp1071
a(I-40
I836
tp1072
a(I-60
I837
tp1073
a(I-60
I838
tp1074
a(I-50
I839
tp1075
a(I-45
I840
tp1076
a(I-50
I841
tp1077
a(I-40
I842
tp1078
a(I-40
I843
tp1079
a(I-40
I844
tp1080
a(I-45
I845
tp1081
a(I-50
I846
tp1082
a(I-45
I847
tp1083
a(I-50
I848
tp1084
a(I-40
I849
tp1085
a(I-50
I850
tp1086
a(I-40
I851
tp1087
a(I-40
I852
tp1088
a(I-45
I853
tp1089
a(I-50
I854
tp1090
a(I-45
I855
tp1091
a(I-40
I856
tp1092
a(I-40
I857
tp1093
a(I-65
I858
tp1094
a(I-60
I859
tp1095
a(I-50
I860
tp1096
a(I-50
I861
tp1097
a(I-70
I862
tp1098
a(I-60
I863
tp1099
a(I-70
I864
tp1100
a(I-70
I865
tp1101
a(I-55
I866
tp1102
a(I-115
I867
tp1103
a(I-90
I868
tp1104
a(I-405
I869
tp1105
a(I-60
I870
tp1106
a(I-135
I871
tp1107
a(I-60
I872
tp1108
a(I-65
I873
tp1109
a(I-420
I874
tp1110
a(I-60
I875
tp1111
a(I-70
I876
tp1112
a(I-55
I877
tp1113
a(I-135
I878
tp1114
a(I-125
I879
tp1115
a(I-115
I880
tp1116
a(I-40
I881
tp1117
a(I-560
I882
tp1118
a(I-130
I883
tp1119
a(I-40
I884
tp1120
a(I-40
I885
tp1121
a(I-45
I886
tp1122
a(I-40
I887
tp1123
a(I-40
I888
tp1124
a(I-165
I889
tp1125
a(I-50
I890
tp1126
a(I-55
I891
tp1127
a(I-45
I892
tp1128
a(I-55
I893
tp1129
a(I-40
I894
tp1130
a(I-45
I895
tp1131
a(I-40
I896
tp1132
a(I-50
I897
tp1133
a(I-55
I898
tp1134
a(I-45
I899
tp1135
a(I-40
I900
tp1136
a(I-50
I901
tp1137
a(I-40
I902
tp1138
a(I-40
I903
tp1139
a(I-45
I904
tp1140
a(I-45
I905
tp1141
a(I-50
I906
tp1142
a(I-55
I907
tp1143
a(I-45
I908
tp1144
a(I-55
I909
tp1145
a(I-45
I910
tp1146
a(I-50
I911
tp1147
a(I-50
I912
tp1148
a(I-40
I913
tp1149
a(I-40
I914
tp1150
a(I-45
I915
tp1151
a(I-40
I916
tp1152
a(I-40
I917
tp1153
a(I-50
I918
tp1154
a(I-40
I919
tp1155
a(I-55
I920
tp1156
a(I-40
I921
tp1157
a(I-40
I922
tp1158
a(I-50
I923
tp1159
a(I-40
I924
tp1160
a(I-40
I925
tp1161
a(I-50
I926
tp1162
a(I-40
I927
tp1163
a(I-40
I928
tp1164
a(I-45
I929
tp1165
a(I-40
I930
tp1166
a(I-40
I931
tp1167
a(I-40
I932
tp1168
a(I-50
I933
tp1169
a(I-50
I934
tp1170
a(I-55
I935
tp1171
a(I-40
I936
tp1172
a(I-45
I937
tp1173
a(I-40
I938
tp1174
a(I-40
I939
tp1175
a(I-55
I940
tp1176
a(I-40
I941
tp1177
a(I-40
I942
tp1178
a(I-40
I943
tp1179
a(I-50
I944
tp1180
a(I-50
I945
tp1181
a(I-40
I946
tp1182
a(I-40
I947
tp1183
a(I-40
I948
tp1184
a(I-40
I949
tp1185
a(I-40
I950
tp1186
a(I-40
I951
tp1187
a(I-40
I952
tp1188
a(I-45
I953
tp1189
a(I-40
I954
tp1190
a(I-40
I955
tp1191
a(I-40
I956
tp1192
a(I-40
I957
tp1193
a(I-40
I958
tp1194
a(I-40
I959
tp1195
a(I-40
I960
tp1196
a(I-40
I961
tp1197
a(I-55
I962
tp1198
a(I-40
I963
tp1199
a(I-40
I964
tp1200
a(I-50
I965
tp1201
a(I-40
I966
tp1202
a(I-40
I967
tp1203
a(I-45
I968
tp1204
a(I-40
I969
tp1205
a(I-40
I970
tp1206
a(I-65
I971
tp1207
a(I-40
I972
tp1208
a(I-40
I973
tp1209
a(I-40
I974
tp1210
a(I-40
I975
tp1211
a(I-40
I976
tp1212
a(I-40
I977
tp1213
a(I-45
I978
tp1214
a(I-40
I979
tp1215
a(I-40
I980
tp1216
a(I-40
I981
tp1217
a(I-50
I982
tp1218
a(I-50
I983
tp1219
a(I-45
I984
tp1220
a(I-40
I985
tp1221
a(I-55
I986
tp1222
a(I-40
I987
tp1223
a(I-45
I988
tp1224
a(I-40
I989
tp1225
a(I-40
I990
tp1226
a(I-50
I991
tp1227
a(I-40
I992
tp1228
a(I-60
I993
tp1229
a(I-40
I994
tp1230
a(I-40
I995
tp1231
a(I-45
I996
tp1232
a(I-50
I997
tp1233
a(I-40
I998
tp1234
a(I-40
I999
tp1235
as.