(dp0
S'policy'
p1
(dp2
(I15
tp3
cnumpy.core.multiarray
scalar
p4
(cnumpy
dtype
p5
(S'i8'
p6
I0
I1
tp7
Rp8
(I3
S'<'
p9
NNNI-1
I-1
I0
tp10
bS'\x01\x00\x00\x00\x00\x00\x00\x00'
p11
tp12
Rp13
s(I90
tp14
g4
(g8
S'\x01\x00\x00\x00\x00\x00\x00\x00'
p15
tp16
Rp17
s(I85
tp18
g4
(g8
S'\x01\x00\x00\x00\x00\x00\x00\x00'
p19
tp20
Rp21
s(I0
tp22
g4
(g8
S'\x00\x00\x00\x00\x00\x00\x00\x00'
p23
tp24
Rp25
s(I65
tp26
g4
(g8
S'\x01\x00\x00\x00\x00\x00\x00\x00'
p27
tp28
Rp29
s(I60
tp30
g4
(g8
S'\x01\x00\x00\x00\x00\x00\x00\x00'
p31
tp32
Rp33
s(I55
tp34
g4
(g8
S'\x01\x00\x00\x00\x00\x00\x00\x00'
p35
tp36
Rp37
s(I40
tp38
g4
(g8
S'\x01\x00\x00\x00\x00\x00\x00\x00'
p39
tp40
Rp41
s(I35
tp42
g4
(g8
S'\x01\x00\x00\x00\x00\x00\x00\x00'
p43
tp44
Rp45
s(I30
tp46
g4
(g8
S'\x01\x00\x00\x00\x00\x00\x00\x00'
p47
tp48
Rp49
s(I100
tp50
g4
(g8
S'\x01\x00\x00\x00\x00\x00\x00\x00'
p51
tp52
Rp53
s(I95
tp54
g4
(g8
S'\x01\x00\x00\x00\x00\x00\x00\x00'
p55
tp56
Rp57
s(I10
tp58
g4
(g8
S'\x01\x00\x00\x00\x00\x00\x00\x00'
p59
tp60
Rp61
s(I5
tp62
g4
(g8
S'\x01\x00\x00\x00\x00\x00\x00\x00'
p63
tp64
Rp65
s(I80
tp66
g4
(g8
S'\x01\x00\x00\x00\x00\x00\x00\x00'
p67
tp68
Rp69
s(I75
tp70
g4
(g8
S'\x01\x00\x00\x00\x00\x00\x00\x00'
p71
tp72
Rp73
s(I70
tp74
g4
(g8
S'\x01\x00\x00\x00\x00\x00\x00\x00'
p75
tp76
Rp77
s(I50
tp78
g4
(g8
S'\x01\x00\x00\x00\x00\x00\x00\x00'
p79
tp80
Rp81
s(I45
tp82
g4
(g8
S'\x01\x00\x00\x00\x00\x00\x00\x00'
p83
tp84
Rp85
s(I25
tp86
g4
(g8
S'\x01\x00\x00\x00\x00\x00\x00\x00'
p87
tp88
Rp89
s(I20
tp90
g4
(g8
S'\x01\x00\x00\x00\x00\x00\x00\x00'
p91
tp92
Rp93
ssS'rewards'
p94
(lp95
(I-495
I0
tp96
a(I-500
I1
tp97
a(I-510
I2
tp98
a(I-450
I3
tp99
a(I-490
I4
tp100
a(I-490
I5
tp101
a(I-495
I6
tp102
a(I-505
I7
tp103
a(I-395
I8
tp104
a(I-500
I9
tp105
a(I-470
I10
tp106
a(I-475
I11
tp107
a(I-465
I12
tp108
a(I-505
I13
tp109
a(I-485
I14
tp110
a(I-480
I15
tp111
a(I-435
I16
tp112
a(I-455
I17
tp113
a(I-455
I18
tp114
a(I-435
I19
tp115
a(I-455
I20
tp116
a(I-415
I21
tp117
a(I-450
I22
tp118
a(I-445
I23
tp119
a(I-390
I24
tp120
a(I-415
I25
tp121
a(I-400
I26
tp122
a(I-440
I27
tp123
a(I-450
I28
tp124
a(I-445
I29
tp125
a(I-465
I30
tp126
a(I-425
I31
tp127
a(I-425
I32
tp128
a(I-355
I33
tp129
a(I-440
I34
tp130
a(I-375
I35
tp131
a(I-415
I36
tp132
a(I-730
I37
tp133
a(I-430
I38
tp134
a(I-460
I39
tp135
a(I-445
I40
tp136
a(I-465
I41
tp137
a(I-375
I42
tp138
a(I-340
I43
tp139
a(I-440
I44
tp140
a(I-370
I45
tp141
a(I-400
I46
tp142
a(I-445
I47
tp143
a(I-330
I48
tp144
a(I-375
I49
tp145
a(I-360
I50
tp146
a(I-320
I51
tp147
a(I-355
I52
tp148
a(I-330
I53
tp149
a(I-370
I54
tp150
a(I-385
I55
tp151
a(I-325
I56
tp152
a(I-380
I57
tp153
a(I-330
I58
tp154
a(I-390
I59
tp155
a(I-355
I60
tp156
a(I-315
I61
tp157
a(I-370
I62
tp158
a(I-315
I63
tp159
a(I-370
I64
tp160
a(I-350
I65
tp161
a(I-485
I66
tp162
a(I-325
I67
tp163
a(I-320
I68
tp164
a(I-355
I69
tp165
a(I-335
I70
tp166
a(I-315
I71
tp167
a(I-330
I72
tp168
a(I-650
I73
tp169
a(I-335
I74
tp170
a(I-675
I75
tp171
a(I-370
I76
tp172
a(I-345
I77
tp173
a(I-760
I78
tp174
a(I-365
I79
tp175
a(I-340
I80
tp176
a(I-345
I81
tp177
a(I-300
I82
tp178
a(I-315
I83
tp179
a(I-335
I84
tp180
a(I-435
I85
tp181
a(I-290
I86
tp182
a(I-295
I87
tp183
a(I-305
I88
tp184
a(I-235
I89
tp185
a(I-260
I90
tp186
a(I-325
I91
tp187
a(I-310
I92
tp188
a(I-315
I93
tp189
a(I-665
I94
tp190
a(I-315
I95
tp191
a(I-265
I96
tp192
a(I-290
I97
tp193
a(I-295
I98
tp194
a(I-270
I99
tp195
a(I-245
I100
tp196
a(I-330
I101
tp197
a(I-290
I102
tp198
a(I-285
I103
tp199
a(I-270
I104
tp200
a(I-325
I105
tp201
a(I-320
I106
tp202
a(I-300
I107
tp203
a(I-245
I108
tp204
a(I-320
I109
tp205
a(I-245
I110
tp206
a(I-290
I111
tp207
a(I-210
I112
tp208
a(I-250
I113
tp209
a(I-310
I114
tp210
a(I-305
I115
tp211
a(I-335
I116
tp212
a(I-765
I117
tp213
a(I-245
I118
tp214
a(I-275
I119
tp215
a(I-280
I120
tp216
a(I-265
I121
tp217
a(I-280
I122
tp218
a(I-280
I123
tp219
a(I-260
I124
tp220
a(I-555
I125
tp221
a(I-245
I126
tp222
a(I-285
I127
tp223
a(I-260
I128
tp224
a(I-215
I129
tp225
a(I-290
I130
tp226
a(I-245
I131
tp227
a(I-245
I132
tp228
a(I-520
I133
tp229
a(I-240
I134
tp230
a(I-300
I135
tp231
a(I-335
I136
tp232
a(I-300
I137
tp233
a(I-285
I138
tp234
a(I-520
I139
tp235
a(I-245
I140
tp236
a(I-260
I141
tp237
a(I-205
I142
tp238
a(I-255
I143
tp239
a(I-305
I144
tp240
a(I-235
I145
tp241
a(I-230
I146
tp242
a(I-240
I147
tp243
a(I-255
I148
tp244
a(I-250
I149
tp245
a(I-205
I150
tp246
a(I-295
I151
tp247
a(I-535
I152
tp248
a(I-245
I153
tp249
a(I-265
I154
tp250
a(I-245
I155
tp251
a(I-235
I156
tp252
a(I-285
I157
tp253
a(I-210
I158
tp254
a(I-230
I159
tp255
a(I-205
I160
tp256
a(I-215
I161
tp257
a(I-200
I162
tp258
a(I-235
I163
tp259
a(I-220
I164
tp260
a(I-260
I165
tp261
a(I-165
I166
tp262
a(I-175
I167
tp263
a(I-235
I168
tp264
a(I-260
I169
tp265
a(I-220
I170
tp266
a(I-230
I171
tp267
a(I-275
I172
tp268
a(I-230
I173
tp269
a(I-225
I174
tp270
a(I-240
I175
tp271
a(I-220
I176
tp272
a(I-175
I177
tp273
a(I-155
I178
tp274
a(I-225
I179
tp275
a(I-215
I180
tp276
a(I-190
I181
tp277
a(I-210
I182
tp278
a(I-170
I183
tp279
a(I-195
I184
tp280
a(I-260
I185
tp281
a(I-185
I186
tp282
a(I-565
I187
tp283
a(I-255
I188
tp284
a(I-590
I189
tp285
a(I-165
I190
tp286
a(I-550
I191
tp287
a(I-180
I192
tp288
a(I-155
I193
tp289
a(I-205
I194
tp290
a(I-200
I195
tp291
a(I-225
I196
tp292
a(I-230
I197
tp293
a(I-585
I198
tp294
a(I-155
I199
tp295
a(I-225
I200
tp296
a(I-235
I201
tp297
a(I-170
I202
tp298
a(I-180
I203
tp299
a(I-190
I204
tp300
a(I-190
I205
tp301
a(I-215
I206
tp302
a(I-605
I207
tp303
a(I-195
I208
tp304
a(I-240
I209
tp305
a(I-610
I210
tp306
a(I-190
I211
tp307
a(I-140
I212
tp308
a(I-150
I213
tp309
a(I-210
I214
tp310
a(I-155
I215
tp311
a(I-160
I216
tp312
a(I-210
I217
tp313
a(I-620
I218
tp314
a(I-170
I219
tp315
a(I-160
I220
tp316
a(I-165
I221
tp317
a(I-155
I222
tp318
a(I-150
I223
tp319
a(I-180
I224
tp320
a(I-190
I225
tp321
a(I-165
I226
tp322
a(I-170
I227
tp323
a(I-160
I228
tp324
a(I-185
I229
tp325
a(I-170
I230
tp326
a(I-180
I231
tp327
a(I-140
I232
tp328
a(I-580
I233
tp329
a(I-140
I234
tp330
a(I-175
I235
tp331
a(I-115
I236
tp332
a(I-170
I237
tp333
a(I-155
I238
tp334
a(I-170
I239
tp335
a(I-200
I240
tp336
a(I-165
I241
tp337
a(I-140
I242
tp338
a(I-190
I243
tp339
a(I-165
I244
tp340
a(I-645
I245
tp341
a(I-135
I246
tp342
a(I-175
I247
tp343
a(I-85
I248
tp344
a(I-525
I249
tp345
a(I-210
I250
tp346
a(I-150
I251
tp347
a(I-570
I252
tp348
a(I-135
I253
tp349
a(I-125
I254
tp350
a(I-120
I255
tp351
a(I-165
I256
tp352
a(I-175
I257
tp353
a(I-180
I258
tp354
a(I-185
I259
tp355
a(I-150
I260
tp356
a(I-140
I261
tp357
a(I-150
I262
tp358
a(I-125
I263
tp359
a(I-130
I264
tp360
a(I-140
I265
tp361
a(I-170
I266
tp362
a(I-90
I267
tp363
a(I-130
I268
tp364
a(I-185
I269
tp365
a(I-145
I270
tp366
a(I-160
I271
tp367
a(I-175
I272
tp368
a(I-160
I273
tp369
a(I-145
I274
tp370
a(I-200
I275
tp371
a(I-145
I276
tp372
a(I-130
I277
tp373
a(I-590
I278
tp374
a(I-190
I279
tp375
a(I-110
I280
tp376
a(I-145
I281
tp377
a(I-140
I282
tp378
a(I-130
I283
tp379
a(I-160
I284
tp380
a(I-130
I285
tp381
a(I-110
I286
tp382
a(I-575
I287
tp383
a(I-165
I288
tp384
a(I-205
I289
tp385
a(I-95
I290
tp386
a(I-130
I291
tp387
a(I-160
I292
tp388
a(I-115
I293
tp389
a(I-175
I294
tp390
a(I-135
I295
tp391
a(I-530
I296
tp392
a(I-145
I297
tp393
a(I-150
I298
tp394
a(I-120
I299
tp395
a(I-670
I300
tp396
a(I-155
I301
tp397
a(I-160
I302
tp398
a(I-120
I303
tp399
a(I-105
I304
tp400
a(I-130
I305
tp401
a(I-185
I306
tp402
a(I-115
I307
tp403
a(I-555
I308
tp404
a(I-130
I309
tp405
a(I-130
I310
tp406
a(I-160
I311
tp407
a(I-115
I312
tp408
a(I-210
I313
tp409
a(I-115
I314
tp410
a(I-125
I315
tp411
a(I-145
I316
tp412
a(I-170
I317
tp413
a(I-90
I318
tp414
a(I-150
I319
tp415
a(I-505
I320
tp416
a(I-155
I321
tp417
a(I-125
I322
tp418
a(I-105
I323
tp419
a(I-145
I324
tp420
a(I-135
I325
tp421
a(I-100
I326
tp422
a(I-135
I327
tp423
a(I-120
I328
tp424
a(I-120
I329
tp425
a(I-510
I330
tp426
a(I-135
I331
tp427
a(I-150
I332
tp428
a(I-90
I333
tp429
a(I-85
I334
tp430
a(I-560
I335
tp431
a(I-510
I336
tp432
a(I-110
I337
tp433
a(I-115
I338
tp434
a(I-135
I339
tp435
a(I-100
I340
tp436
a(I-130
I341
tp437
a(I-505
I342
tp438
a(I-115
I343
tp439
a(I-140
I344
tp440
a(I-115
I345
tp441
a(I-120
I346
tp442
a(I-130
I347
tp443
a(I-90
I348
tp444
a(I-130
I349
tp445
a(I-110
I350
tp446
a(I-130
I351
tp447
a(I-100
I352
tp448
a(I-85
I353
tp449
a(I-110
I354
tp450
a(I-125
I355
tp451
a(I-110
I356
tp452
a(I-125
I357
tp453
a(I-95
I358
tp454
a(I-130
I359
tp455
a(I-75
I360
tp456
a(I-145
I361
tp457
a(I-100
I362
tp458
a(I-125
I363
tp459
a(I-120
I364
tp460
a(I-95
I365
tp461
a(I-110
I366
tp462
a(I-105
I367
tp463
a(I-120
I368
tp464
a(I-90
I369
tp465
a(I-100
I370
tp466
a(I-95
I371
tp467
a(I-145
I372
tp468
a(I-95
I373
tp469
a(I-125
I374
tp470
a(I-125
I375
tp471
a(I-100
I376
tp472
a(I-90
I377
tp473
a(I-105
I378
tp474
a(I-605
I379
tp475
a(I-105
I380
tp476
a(I-100
I381
tp477
a(I-540
I382
tp478
a(I-110
I383
tp479
a(I-85
I384
tp480
a(I-155
I385
tp481
a(I-80
I386
tp482
a(I-120
I387
tp483
a(I-100
I388
tp484
a(I-115
I389
tp485
a(I-130
I390
tp486
a(I-95
I391
tp487
a(I-95
I392
tp488
a(I-115
I393
tp489
a(I-95
I394
tp490
a(I-105
I395
tp491
a(I-135
I396
tp492
a(I-85
I397
tp493
a(I-120
I398
tp494
a(I-125
I399
tp495
a(I-85
I400
tp496
a(I-90
I401
tp497
a(I-110
I402
tp498
a(I-100
I403
tp499
a(I-110
I404
tp500
a(I-90
I405
tp501
a(I-535
I406
tp502
a(I-90
I407
tp503
a(I-105
I408
tp504
a(I-570
I409
tp505
a(I-85
I410
tp506
a(I-90
I411
tp507
a(I-125
I412
tp508
a(I-110
I413
tp509
a(I-75
I414
tp510
a(I-105
I415
tp511
a(I-95
I416
tp512
a(I-585
I417
tp513
a(I-95
I418
tp514
a(I-65
I419
tp515
a(I-585
I420
tp516
a(I-80
I421
tp517
a(I-140
I422
tp518
a(I-100
I423
tp519
a(I-325
I424
tp520
a(I-115
I425
tp521
a(I-90
I426
tp522
a(I-100
I427
tp523
a(I-100
I428
tp524
a(I-90
I429
tp525
a(I-515
I430
tp526
a(I-95
I431
tp527
a(I-130
I432
tp528
a(I-70
I433
tp529
a(I-75
I434
tp530
a(I-130
I435
tp531
a(I-75
I436
tp532
a(I-95
I437
tp533
a(I-115
I438
tp534
a(I-110
I439
tp535
a(I-105
I440
tp536
a(I-100
I441
tp537
a(I-90
I442
tp538
a(I-95
I443
tp539
a(I-95
I444
tp540
a(I-95
I445
tp541
a(I-75
I446
tp542
a(I-75
I447
tp543
a(I-70
I448
tp544
a(I-115
I449
tp545
a(I-125
I450
tp546
a(I-140
I451
tp547
a(I-150
I452
tp548
a(I-120
I453
tp549
a(I-100
I454
tp550
a(I-90
I455
tp551
a(I-110
I456
tp552
a(I-65
I457
tp553
a(I-110
I458
tp554
a(I-60
I459
tp555
a(I-120
I460
tp556
a(I-95
I461
tp557
a(I-75
I462
tp558
a(I-65
I463
tp559
a(I-85
I464
tp560
a(I-80
I465
tp561
a(I-110
I466
tp562
a(I-80
I467
tp563
a(I-85
I468
tp564
a(I-90
I469
tp565
a(I-90
I470
tp566
a(I-90
I471
tp567
a(I-80
I472
tp568
a(I-105
I473
tp569
a(I-80
I474
tp570
a(I-80
I475
tp571
a(I-95
I476
tp572
a(I-65
I477
tp573
a(I-75
I478
tp574
a(I-130
I479
tp575
a(I-85
I480
tp576
a(I-85
I481
tp577
a(I-90
I482
tp578
a(I-90
I483
tp579
a(I-75
I484
tp580
a(I-95
I485
tp581
a(I-65
I486
tp582
a(I-90
I487
tp583
a(I-95
I488
tp584
a(I-55
I489
tp585
a(I-95
I490
tp586
a(I-90
I491
tp587
a(I-85
I492
tp588
a(I-80
I493
tp589
a(I-115
I494
tp590
a(I-85
I495
tp591
a(I-115
I496
tp592
a(I-115
I497
tp593
a(I-90
I498
tp594
a(I-100
I499
tp595
a(I-80
I500
tp596
a(I-80
I501
tp597
a(I-130
I502
tp598
a(I-65
I503
tp599
a(I-140
I504
tp600
a(I-110
I505
tp601
a(I-70
I506
tp602
a(I-110
I507
tp603
a(I-65
I508
tp604
a(I-70
I509
tp605
a(I-65
I510
tp606
a(I-140
I511
tp607
a(I-80
I512
tp608
a(I-70
I513
tp609
a(I-85
I514
tp610
a(I-60
I515
tp611
a(I-60
I516
tp612
a(I-70
I517
tp613
a(I-60
I518
tp614
a(I-65
I519
tp615
a(I-75
I520
tp616
a(I-50
I521
tp617
a(I-75
I522
tp618
a(I-70
I523
tp619
a(I-80
I524
tp620
a(I-70
I525
tp621
a(I-65
I526
tp622
a(I-85
I527
tp623
a(I-60
I528
tp624
a(I-85
I529
tp625
a(I-105
I530
tp626
a(I-100
I531
tp627
a(I-85
I532
tp628
a(I-125
I533
tp629
a(I-70
I534
tp630
a(I-180
I535
tp631
a(I-130
I536
tp632
a(I-110
I537
tp633
a(I-75
I538
tp634
a(I-60
I539
tp635
a(I-75
I540
tp636
a(I-100
I541
tp637
a(I-55
I542
tp638
a(I-50
I543
tp639
a(I-90
I544
tp640
a(I-65
I545
tp641
a(I-80
I546
tp642
a(I-70
I547
tp643
a(I-245
I548
tp644
a(I-60
I549
tp645
a(I-70
I550
tp646
a(I-75
I551
tp647
a(I-160
I552
tp648
a(I-55
I553
tp649
a(I-75
I554
tp650
a(I-75
I555
tp651
a(I-80
I556
tp652
a(I-50
I557
tp653
a(I-75
I558
tp654
a(I-45
I559
tp655
a(I-530
I560
tp656
a(I-90
I561
tp657
a(I-60
I562
tp658
a(I-80
I563
tp659
a(I-505
I564
tp660
a(I-50
I565
tp661
a(I-55
I566
tp662
a(I-70
I567
tp663
a(I-80
I568
tp664
a(I-70
I569
tp665
a(I-65
I570
tp666
a(I-55
I571
tp667
a(I-65
I572
tp668
a(I-65
I573
tp669
a(I-55
I574
tp670
a(I-70
I575
tp671
a(I-75
I576
tp672
a(I-115
I577
tp673
a(I-95
I578
tp674
a(I-85
I579
tp675
a(I-105
I580
tp676
a(I-105
I581
tp677
a(I-120
I582
tp678
a(I-130
I583
tp679
a(I-60
I584
tp680
a(I-105
I585
tp681
a(I-90
I586
tp682
a(I-60
I587
tp683
a(I-205
I588
tp684
a(I-125
I589
tp685
a(I-125
I590
tp686
a(I-80
I591
tp687
a(I-65
I592
tp688
a(I-80
I593
tp689
a(I-85
I594
tp690
a(I-80
I595
tp691
a(I-70
I596
tp692
a(I-95
I597
tp693
a(I-85
I598
tp694
a(I-120
I599
tp695
a(I-80
I600
tp696
a(I-90
I601
tp697
a(I-125
I602
tp698
a(I-80
I603
tp699
a(I-65
I604
tp700
a(I-60
I605
tp701
a(I-80
I606
tp702
a(I-70
I607
tp703
a(I-55
I608
tp704
a(I-60
I609
tp705
a(I-65
I610
tp706
a(I-85
I611
tp707
a(I-60
I612
tp708
a(I-55
I613
tp709
a(I-65
I614
tp710
a(I-85
I615
tp711
a(I-65
I616
tp712
a(I-55
I617
tp713
a(I-70
I618
tp714
a(I-50
I619
tp715
a(I-65
I620
tp716
a(I-85
I621
tp717
a(I-60
I622
tp718
a(I-70
I623
tp719
a(I-65
I624
tp720
a(I-70
I625
tp721
a(I-75
I626
tp722
a(I-60
I627
tp723
a(I-80
I628
tp724
a(I-85
I629
tp725
a(I-55
I630
tp726
a(I-65
I631
tp727
a(I-70
I632
tp728
a(I-65
I633
tp729
a(I-75
I634
tp730
a(I-120
I635
tp731
a(I-50
I636
tp732
a(I-55
I637
tp733
a(I-55
I638
tp734
a(I-50
I639
tp735
a(I-60
I640
tp736
a(I-70
I641
tp737
a(I-130
I642
tp738
a(I-80
I643
tp739
a(I-120
I644
tp740
a(I-120
I645
tp741
a(I-110
I646
tp742
a(I-135
I647
tp743
a(I-240
I648
tp744
a(I-320
I649
tp745
a(I-165
I650
tp746
a(I-145
I651
tp747
a(I-100
I652
tp748
a(I-135
I653
tp749
a(I-65
I654
tp750
a(I-115
I655
tp751
a(I-80
I656
tp752
a(I-100
I657
tp753
a(I-50
I658
tp754
a(I-60
I659
tp755
a(I-75
I660
tp756
a(I-75
I661
tp757
a(I-75
I662
tp758
a(I-90
I663
tp759
a(I-90
I664
tp760
a(I-55
I665
tp761
a(I-85
I666
tp762
a(I-75
I667
tp763
a(I-50
I668
tp764
a(I-60
I669
tp765
a(I-75
I670
tp766
a(I-40
I671
tp767
a(I-140
I672
tp768
a(I-80
I673
tp769
a(I-40
I674
tp770
a(I-50
I675
tp771
a(I-60
I676
tp772
a(I-45
I677
tp773
a(I-50
I678
tp774
a(I-535
I679
tp775
a(I-50
I680
tp776
a(I-55
I681
tp777
a(I-50
I682
tp778
a(I-75
I683
tp779
a(I-75
I684
tp780
a(I-255
I685
tp781
a(I-50
I686
tp782
a(I-50
I687
tp783
a(I-55
I688
tp784
a(I-60
I689
tp785
a(I-65
I690
tp786
a(I-50
I691
tp787
a(I-75
I692
tp788
a(I-65
I693
tp789
a(I-50
I694
tp790
a(I-60
I695
tp791
a(I-55
I696
tp792
a(I-55
I697
tp793
a(I-50
I698
tp794
a(I-55
I699
tp795
a(I-60
I700
tp796
a(I-70
I701
tp797
a(I-80
I702
tp798
a(I-60
I703
tp799
a(I-75
I704
tp800
a(I-70
I705
tp801
a(I-65
I706
tp802
a(I-75
I707
tp803
a(I-50
I708
tp804
a(I-70
I709
tp805
a(I-85
I710
tp806
a(I-75
I711
tp807
a(I-85
I712
tp808
a(I-80
I713
tp809
a(I-70
I714
tp810
a(I-510
I715
tp811
a(I-60
I716
tp812
a(I-40
I717
tp813
a(I-50
I718
tp814
a(I-520
I719
tp815
a(I-40
I720
tp816
a(I-45
I721
tp817
a(I-45
I722
tp818
a(I-75
I723
tp819
a(I-40
I724
tp820
a(I-75
I725
tp821
a(I-50
I726
tp822
a(I-80
I727
tp823
a(I-65
I728
tp824
a(I-60
I729
tp825
a(I-40
I730
tp826
a(I-50
I731
tp827
a(I-40
I732
tp828
a(I-60
I733
tp829
a(I-70
I734
tp830
a(I-45
I735
tp831
a(I-45
I736
tp832
a(I-55
I737
tp833
a(I-45
I738
tp834
a(I-50
I739
tp835
a(I-40
I740
tp836
a(I-50
I741
tp837
a(I-65
I742
tp838
a(I-70
I743
tp839
a(I-65
I744
tp840
a(I-75
I745
tp841
a(I-65
I746
tp842
a(I-65
I747
tp843
a(I-65
I748
tp844
a(I-80
I749
tp845
a(I-60
I750
tp846
a(I-65
I751
tp847
a(I-50
I752
tp848
a(I-50
I753
tp849
a(I-65
I754
tp850
a(I-65
I755
tp851
a(I-50
I756
tp852
a(I-60
I757
tp853
a(I-60
I758
tp854
a(I-65
I759
tp855
a(I-60
I760
tp856
a(I-50
I761
tp857
a(I-55
I762
tp858
a(I-55
I763
tp859
a(I-55
I764
tp860
a(I-50
I765
tp861
a(I-65
I766
tp862
a(I-65
I767
tp863
a(I-55
I768
tp864
a(I-55
I769
tp865
a(I-55
I770
tp866
a(I-80
I771
tp867
a(I-50
I772
tp868
a(I-50
I773
tp869
a(I-55
I774
tp870
a(I-85
I775
tp871
a(I-50
I776
tp872
a(I-50
I777
tp873
a(I-50
I778
tp874
a(I-50
I779
tp875
a(I-55
I780
tp876
a(I-55
I781
tp877
a(I-50
I782
tp878
a(I-50
I783
tp879
a(I-60
I784
tp880
a(I-60
I785
tp881
a(I-60
I786
tp882
a(I-55
I787
tp883
a(I-70
I788
tp884
a(I-65
I789
tp885
a(I-70
I790
tp886
a(I-55
I791
tp887
a(I-55
I792
tp888
a(I-65
I793
tp889
a(I-50
I794
tp890
a(I-60
I795
tp891
a(I-50
I796
tp892
a(I-65
I797
tp893
a(I-50
I798
tp894
a(I-55
I799
tp895
a(I-50
I800
tp896
a(I-50
I801
tp897
a(I-55
I802
tp898
a(I-60
I803
tp899
a(I-50
I804
tp900
a(I-70
I805
tp901
a(I-50
I806
tp902
a(I-50
I807
tp903
a(I-50
I808
tp904
a(I-50
I809
tp905
a(I-50
I810
tp906
a(I-60
I811
tp907
a(I-65
I812
tp908
a(I-55
I813
tp909
a(I-50
I814
tp910
a(I-65
I815
tp911
a(I-65
I816
tp912
a(I-50
I817
tp913
a(I-60
I818
tp914
a(I-60
I819
tp915
a(I-75
I820
tp916
a(I-160
I821
tp917
a(I-50
I822
tp918
a(I-50
I823
tp919
a(I-60
I824
tp920
a(I-55
I825
tp921
a(I-55
I826
tp922
a(I-70
I827
tp923
a(I-70
I828
tp924
a(I-70
I829
tp925
a(I-70
I830
tp926
a(I-75
I831
tp927
a(I-75
I832
tp928
a(I-75
I833
tp929
a(I-60
I834
tp930
a(I-85
I835
tp931
a(I-40
I836
tp932
a(I-520
I837
tp933
a(I-80
I838
tp934
a(I-70
I839
tp935
a(I-90
I840
tp936
a(I-80
I841
tp937
a(I-160
I842
tp938
a(I-85
I843
tp939
a(I-180
I844
tp940
a(I-90
I845
tp941
a(I-70
I846
tp942
a(I-85
I847
tp943
a(I-505
I848
tp944
a(I-45
I849
tp945
a(I-40
I850
tp946
a(I-55
I851
tp947
a(I-50
I852
tp948
a(I-515
I853
tp949
a(I-50
I854
tp950
a(I-70
I855
tp951
a(I-40
I856
tp952
a(I-40
I857
tp953
a(I-50
I858
tp954
a(I-50
I859
tp955
a(I-40
I860
tp956
a(I-40
I861
tp957
a(I-45
I862
tp958
a(I-50
I863
tp959
a(I-40
I864
tp960
a(I-40
I865
tp961
a(I-45
I866
tp962
a(I-40
I867
tp963
a(I-50
I868
tp964
a(I-40
I869
tp965
a(I-50
I870
tp966
a(I-50
I871
tp967
a(I-40
I872
tp968
a(I-45
I873
tp969
a(I-40
I874
tp970
a(I-55
I875
tp971
a(I-45
I876
tp972
a(I-40
I877
tp973
a(I-45
I878
tp974
a(I-40
I879
tp975
a(I-50
I880
tp976
a(I-45
I881
tp977
a(I-55
I882
tp978
a(I-45
I883
tp979
a(I-45
I884
tp980
a(I-40
I885
tp981
a(I-55
I886
tp982
a(I-40
I887
tp983
a(I-50
I888
tp984
a(I-50
I889
tp985
a(I-50
I890
tp986
a(I-60
I891
tp987
a(I-50
I892
tp988
a(I-55
I893
tp989
a(I-50
I894
tp990
a(I-50
I895
tp991
a(I-50
I896
tp992
a(I-60
I897
tp993
a(I-50
I898
tp994
a(I-50
I899
tp995
a(I-50
I900
tp996
a(I-50
I901
tp997
a(I-55
I902
tp998
a(I-50
I903
tp999
a(I-50
I904
tp1000
a(I-60
I905
tp1001
a(I-50
I906
tp1002
a(I-60
I907
tp1003
a(I-50
I908
tp1004
a(I-50
I909
tp1005
a(I-50
I910
tp1006
a(I-55
I911
tp1007
a(I-85
I912
tp1008
a(I-50
I913
tp1009
a(I-50
I914
tp1010
a(I-50
I915
tp1011
a(I-50
I916
tp1012
a(I-55
I917
tp1013
a(I-85
I918
tp1014
a(I-60
I919
tp1015
a(I-50
I920
tp1016
a(I-50
I921
tp1017
a(I-50
I922
tp1018
a(I-55
I923
tp1019
a(I-50
I924
tp1020
a(I-50
I925
tp1021
a(I-50
I926
tp1022
a(I-50
I927
tp1023
a(I-50
I928
tp1024
a(I-50
I929
tp1025
a(I-50
I930
tp1026
a(I-50
I931
tp1027
a(I-55
I932
tp1028
a(I-50
I933
tp1029
a(I-50
I934
tp1030
a(I-50
I935
tp1031
a(I-85
I936
tp1032
a(I-40
I937
tp1033
a(I-50
I938
tp1034
a(I-40
I939
tp1035
a(I-40
I940
tp1036
a(I-55
I941
tp1037
a(I-50
I942
tp1038
a(I-50
I943
tp1039
a(I-50
I944
tp1040
a(I-50
I945
tp1041
a(I-50
I946
tp1042
a(I-55
I947
tp1043
a(I-50
I948
tp1044
a(I-50
I949
tp1045
a(I-60
I950
tp1046
a(I-50
I951
tp1047
a(I-50
I952
tp1048
a(I-50
I953
tp1049
a(I-60
I954
tp1050
a(I-50
I955
tp1051
a(I-50
I956
tp1052
a(I-50
I957
tp1053
a(I-50
I958
tp1054
a(I-50
I959
tp1055
a(I-50
I960
tp1056
a(I-50
I961
tp1057
a(I-55
I962
tp1058
a(I-55
I963
tp1059
a(I-50
I964
tp1060
a(I-50
I965
tp1061
a(I-55
I966
tp1062
a(I-50
I967
tp1063
a(I-55
I968
tp1064
a(I-55
I969
tp1065
a(I-50
I970
tp1066
a(I-50
I971
tp1067
a(I-50
I972
tp1068
a(I-50
I973
tp1069
a(I-55
I974
tp1070
a(I-50
I975
tp1071
a(I-50
I976
tp1072
a(I-60
I977
tp1073
a(I-50
I978
tp1074
a(I-50
I979
tp1075
a(I-50
I980
tp1076
a(I-50
I981
tp1077
a(I-50
I982
tp1078
a(I-50
I983
tp1079
a(I-50
I984
tp1080
a(I-50
I985
tp1081
a(I-60
I986
tp1082
a(I-50
I987
tp1083
a(I-55
I988
tp1084
a(I-50
I989
tp1085
a(I-50
I990
tp1086
a(I-50
I991
tp1087
a(I-55
I992
tp1088
a(I-55
I993
tp1089
a(I-50
I994
tp1090
a(I-50
I995
tp1091
a(I-50
I996
tp1092
a(I-55
I997
tp1093
a(I-50
I998
tp1094
a(I-50
I999
tp1095
a(I-55
I1000
tp1096
a(I-50
I1001
tp1097
a(I-50
I1002
tp1098
a(I-50
I1003
tp1099
a(I-50
I1004
tp1100
a(I-50
I1005
tp1101
a(I-50
I1006
tp1102
a(I-50
I1007
tp1103
a(I-60
I1008
tp1104
a(I-60
I1009
tp1105
a(I-50
I1010
tp1106
a(I-50
I1011
tp1107
a(I-50
I1012
tp1108
a(I-50
I1013
tp1109
a(I-50
I1014
tp1110
a(I-50
I1015
tp1111
a(I-50
I1016
tp1112
a(I-50
I1017
tp1113
a(I-50
I1018
tp1114
a(I-55
I1019
tp1115
a(I-80
I1020
tp1116
a(I-80
I1021
tp1117
a(I-80
I1022
tp1118
a(I-80
I1023
tp1119
a(I-85
I1024
tp1120
a(I-80
I1025
tp1121
a(I-80
I1026
tp1122
a(I-90
I1027
tp1123
a(I-50
I1028
tp1124
a(I-80
I1029
tp1125
a(I-50
I1030
tp1126
a(I-40
I1031
tp1127
a(I-40
I1032
tp1128
a(I-40
I1033
tp1129
a(I-50
I1034
tp1130
a(I-40
I1035
tp1131
a(I-50
I1036
tp1132
a(I-50
I1037
tp1133
a(I-50
I1038
tp1134
a(I-50
I1039
tp1135
a(I-40
I1040
tp1136
a(I-510
I1041
tp1137
a(I-40
I1042
tp1138
a(I-40
I1043
tp1139
a(I-40
I1044
tp1140
a(I-45
I1045
tp1141
a(I-65
I1046
tp1142
a(I-40
I1047
tp1143
a(I-40
I1048
tp1144
a(I-40
I1049
tp1145
a(I-40
I1050
tp1146
a(I-45
I1051
tp1147
a(I-40
I1052
tp1148
a(I-50
I1053
tp1149
a(I-40
I1054
tp1150
a(I-40
I1055
tp1151
a(I-45
I1056
tp1152
a(I-40
I1057
tp1153
a(I-40
I1058
tp1154
a(I-40
I1059
tp1155
a(I-40
I1060
tp1156
a(I-40
I1061
tp1157
a(I-40
I1062
tp1158
a(I-40
I1063
tp1159
a(I-40
I1064
tp1160
a(I-40
I1065
tp1161
a(I-40
I1066
tp1162
a(I-40
I1067
tp1163
a(I-60
I1068
tp1164
a(I-40
I1069
tp1165
a(I-45
I1070
tp1166
a(I-40
I1071
tp1167
a(I-40
I1072
tp1168
a(I-40
I1073
tp1169
a(I-40
I1074
tp1170
a(I-50
I1075
tp1171
a(I-40
I1076
tp1172
a(I-40
I1077
tp1173
a(I-40
I1078
tp1174
a(I-45
I1079
tp1175
a(I-40
I1080
tp1176
a(I-50
I1081
tp1177
a(I-55
I1082
tp1178
a(I-40
I1083
tp1179
a(I-40
I1084
tp1180
a(I-40
I1085
tp1181
a(I-40
I1086
tp1182
a(I-40
I1087
tp1183
a(I-45
I1088
tp1184
a(I-40
I1089
tp1185
a(I-40
I1090
tp1186
a(I-40
I1091
tp1187
a(I-40
I1092
tp1188
a(I-40
I1093
tp1189
a(I-45
I1094
tp1190
a(I-45
I1095
tp1191
a(I-45
I1096
tp1192
a(I-40
I1097
tp1193
a(I-40
I1098
tp1194
a(I-50
I1099
tp1195
a(I-40
I1100
tp1196
a(I-40
I1101
tp1197
a(I-40
I1102
tp1198
a(I-50
I1103
tp1199
a(I-40
I1104
tp1200
a(I-40
I1105
tp1201
a(I-40
I1106
tp1202
a(I-40
I1107
tp1203
a(I-40
I1108
tp1204
a(I-40
I1109
tp1205
a(I-40
I1110
tp1206
a(I-40
I1111
tp1207
a(I-40
I1112
tp1208
a(I-50
I1113
tp1209
a(I-40
I1114
tp1210
a(I-40
I1115
tp1211
a(I-45
I1116
tp1212
a(I-45
I1117
tp1213
a(I-40
I1118
tp1214
a(I-45
I1119
tp1215
a(I-50
I1120
tp1216
a(I-40
I1121
tp1217
a(I-40
I1122
tp1218
a(I-40
I1123
tp1219
a(I-40
I1124
tp1220
a(I-40
I1125
tp1221
a(I-40
I1126
tp1222
a(I-40
I1127
tp1223
a(I-45
I1128
tp1224
a(I-40
I1129
tp1225
a(I-40
I1130
tp1226
a(I-40
I1131
tp1227
a(I-40
I1132
tp1228
a(I-40
I1133
tp1229
a(I-40
I1134
tp1230
a(I-40
I1135
tp1231
a(I-40
I1136
tp1232
a(I-50
I1137
tp1233
a(I-40
I1138
tp1234
a(I-40
I1139
tp1235
a(I-40
I1140
tp1236
a(I-40
I1141
tp1237
a(I-40
I1142
tp1238
a(I-45
I1143
tp1239
a(I-40
I1144
tp1240
a(I-40
I1145
tp1241
a(I-40
I1146
tp1242
a(I-40
I1147
tp1243
a(I-40
I1148
tp1244
a(I-40
I1149
tp1245
a(I-40
I1150
tp1246
a(I-40
I1151
tp1247
a(I-50
I1152
tp1248
a(I-40
I1153
tp1249
a(I-40
I1154
tp1250
a(I-40
I1155
tp1251
a(I-530
I1156
tp1252
a(I-40
I1157
tp1253
a(I-40
I1158
tp1254
a(I-40
I1159
tp1255
a(I-40
I1160
tp1256
a(I-45
I1161
tp1257
a(I-40
I1162
tp1258
a(I-40
I1163
tp1259
a(I-40
I1164
tp1260
a(I-40
I1165
tp1261
a(I-40
I1166
tp1262
a(I-50
I1167
tp1263
a(I-45
I1168
tp1264
a(I-40
I1169
tp1265
a(I-40
I1170
tp1266
a(I-40
I1171
tp1267
a(I-40
I1172
tp1268
a(I-40
I1173
tp1269
a(I-40
I1174
tp1270
a(I-40
I1175
tp1271
a(I-40
I1176
tp1272
a(I-40
I1177
tp1273
a(I-40
I1178
tp1274
a(I-40
I1179
tp1275
a(I-40
I1180
tp1276
a(I-40
I1181
tp1277
a(I-40
I1182
tp1278
a(I-40
I1183
tp1279
a(I-45
I1184
tp1280
a(I-40
I1185
tp1281
a(I-40
I1186
tp1282
a(I-40
I1187
tp1283
a(I-50
I1188
tp1284
a(I-40
I1189
tp1285
a(I-40
I1190
tp1286
a(I-40
I1191
tp1287
a(I-40
I1192
tp1288
a(I-50
I1193
tp1289
a(I-40
I1194
tp1290
a(I-40
I1195
tp1291
a(I-40
I1196
tp1292
a(I-50
I1197
tp1293
a(I-40
I1198
tp1294
a(I-40
I1199
tp1295
a(I-40
I1200
tp1296
a(I-40
I1201
tp1297
a(I-50
I1202
tp1298
a(I-40
I1203
tp1299
a(I-40
I1204
tp1300
a(I-40
I1205
tp1301
a(I-40
I1206
tp1302
a(I-40
I1207
tp1303
a(I-45
I1208
tp1304
a(I-40
I1209
tp1305
a(I-40
I1210
tp1306
a(I-40
I1211
tp1307
a(I-40
I1212
tp1308
a(I-40
I1213
tp1309
a(I-40
I1214
tp1310
a(I-40
I1215
tp1311
a(I-40
I1216
tp1312
a(I-40
I1217
tp1313
a(I-40
I1218
tp1314
a(I-40
I1219
tp1315
a(I-40
I1220
tp1316
a(I-40
I1221
tp1317
a(I-40
I1222
tp1318
a(I-40
I1223
tp1319
a(I-40
I1224
tp1320
a(I-40
I1225
tp1321
a(I-40
I1226
tp1322
a(I-40
I1227
tp1323
a(I-40
I1228
tp1324
a(I-40
I1229
tp1325
a(I-40
I1230
tp1326
a(I-45
I1231
tp1327
a(I-40
I1232
tp1328
a(I-40
I1233
tp1329
a(I-40
I1234
tp1330
a(I-40
I1235
tp1331
a(I-40
I1236
tp1332
a(I-40
I1237
tp1333
a(I-50
I1238
tp1334
a(I-40
I1239
tp1335
a(I-45
I1240
tp1336
a(I-40
I1241
tp1337
a(I-50
I1242
tp1338
a(I-40
I1243
tp1339
a(I-40
I1244
tp1340
a(I-40
I1245
tp1341
a(I-40
I1246
tp1342
a(I-40
I1247
tp1343
a(I-40
I1248
tp1344
a(I-40
I1249
tp1345
a(I-40
I1250
tp1346
a(I-50
I1251
tp1347
a(I-40
I1252
tp1348
a(I-40
I1253
tp1349
a(I-40
I1254
tp1350
a(I-50
I1255
tp1351
a(I-40
I1256
tp1352
a(I-40
I1257
tp1353
a(I-40
I1258
tp1354
a(I-40
I1259
tp1355
a(I-50
I1260
tp1356
a(I-40
I1261
tp1357
a(I-40
I1262
tp1358
a(I-40
I1263
tp1359
a(I-40
I1264
tp1360
a(I-45
I1265
tp1361
a(I-40
I1266
tp1362
a(I-40
I1267
tp1363
a(I-40
I1268
tp1364
a(I-50
I1269
tp1365
a(I-45
I1270
tp1366
a(I-40
I1271
tp1367
a(I-40
I1272
tp1368
a(I-40
I1273
tp1369
a(I-40
I1274
tp1370
a(I-40
I1275
tp1371
a(I-40
I1276
tp1372
a(I-40
I1277
tp1373
a(I-40
I1278
tp1374
a(I-50
I1279
tp1375
a(I-40
I1280
tp1376
a(I-40
I1281
tp1377
a(I-40
I1282
tp1378
a(I-40
I1283
tp1379
a(I-40
I1284
tp1380
a(I-40
I1285
tp1381
a(I-40
I1286
tp1382
a(I-40
I1287
tp1383
a(I-40
I1288
tp1384
a(I-40
I1289
tp1385
a(I-40
I1290
tp1386
a(I-40
I1291
tp1387
a(I-40
I1292
tp1388
a(I-40
I1293
tp1389
a(I-40
I1294
tp1390
a(I-40
I1295
tp1391
a(I-40
I1296
tp1392
a(I-50
I1297
tp1393
a(I-40
I1298
tp1394
a(I-40
I1299
tp1395
a(I-40
I1300
tp1396
a(I-40
I1301
tp1397
a(I-40
I1302
tp1398
a(I-40
I1303
tp1399
a(I-40
I1304
tp1400
a(I-40
I1305
tp1401
a(I-40
I1306
tp1402
a(I-40
I1307
tp1403
a(I-40
I1308
tp1404
a(I-40
I1309
tp1405
a(I-40
I1310
tp1406
a(I-40
I1311
tp1407
a(I-40
I1312
tp1408
a(I-40
I1313
tp1409
a(I-40
I1314
tp1410
a(I-40
I1315
tp1411
a(I-40
I1316
tp1412
a(I-40
I1317
tp1413
a(I-40
I1318
tp1414
a(I-40
I1319
tp1415
a(I-40
I1320
tp1416
a(I-40
I1321
tp1417
a(I-40
I1322
tp1418
a(I-40
I1323
tp1419
a(I-40
I1324
tp1420
a(I-40
I1325
tp1421
a(I-40
I1326
tp1422
a(I-40
I1327
tp1423
a(I-40
I1328
tp1424
a(I-40
I1329
tp1425
a(I-40
I1330
tp1426
a(I-40
I1331
tp1427
a(I-40
I1332
tp1428
a(I-40
I1333
tp1429
a(I-40
I1334
tp1430
a(I-40
I1335
tp1431
a(I-40
I1336
tp1432
a(I-40
I1337
tp1433
a(I-40
I1338
tp1434
a(I-40
I1339
tp1435
a(I-40
I1340
tp1436
a(I-40
I1341
tp1437
a(I-40
I1342
tp1438
a(I-40
I1343
tp1439
a(I-40
I1344
tp1440
a(I-40
I1345
tp1441
a(I-40
I1346
tp1442
a(I-40
I1347
tp1443
a(I-40
I1348
tp1444
a(I-40
I1349
tp1445
a(I-40
I1350
tp1446
a(I-40
I1351
tp1447
a(I-50
I1352
tp1448
a(I-40
I1353
tp1449
a(I-40
I1354
tp1450
a(I-40
I1355
tp1451
a(I-40
I1356
tp1452
a(I-40
I1357
tp1453
a(I-40
I1358
tp1454
a(I-40
I1359
tp1455
a(I-40
I1360
tp1456
a(I-40
I1361
tp1457
a(I-40
I1362
tp1458
a(I-40
I1363
tp1459
a(I-40
I1364
tp1460
a(I-40
I1365
tp1461
a(I-40
I1366
tp1462
a(I-40
I1367
tp1463
a(I-40
I1368
tp1464
a(I-40
I1369
tp1465
a(I-40
I1370
tp1466
a(I-40
I1371
tp1467
a(I-40
I1372
tp1468
a(I-45
I1373
tp1469
a(I-40
I1374
tp1470
a(I-40
I1375
tp1471
a(I-40
I1376
tp1472
a(I-40
I1377
tp1473
a(I-40
I1378
tp1474
a(I-40
I1379
tp1475
a(I-40
I1380
tp1476
a(I-40
I1381
tp1477
a(I-40
I1382
tp1478
a(I-40
I1383
tp1479
a(I-40
I1384
tp1480
a(I-40
I1385
tp1481
a(I-40
I1386
tp1482
a(I-40
I1387
tp1483
a(I-40
I1388
tp1484
a(I-45
I1389
tp1485
a(I-40
I1390
tp1486
a(I-40
I1391
tp1487
a(I-40
I1392
tp1488
a(I-40
I1393
tp1489
a(I-40
I1394
tp1490
a(I-40
I1395
tp1491
a(I-40
I1396
tp1492
a(I-40
I1397
tp1493
a(I-40
I1398
tp1494
a(I-40
I1399
tp1495
a(I-45
I1400
tp1496
a(I-45
I1401
tp1497
a(I-45
I1402
tp1498
a(I-40
I1403
tp1499
a(I-40
I1404
tp1500
a(I-40
I1405
tp1501
a(I-40
I1406
tp1502
a(I-40
I1407
tp1503
a(I-40
I1408
tp1504
a(I-40
I1409
tp1505
a(I-40
I1410
tp1506
a(I-40
I1411
tp1507
a(I-40
I1412
tp1508
a(I-40
I1413
tp1509
a(I-40
I1414
tp1510
a(I-40
I1415
tp1511
a(I-40
I1416
tp1512
a(I-40
I1417
tp1513
a(I-40
I1418
tp1514
a(I-40
I1419
tp1515
a(I-40
I1420
tp1516
a(I-40
I1421
tp1517
a(I-40
I1422
tp1518
a(I-40
I1423
tp1519
a(I-40
I1424
tp1520
a(I-40
I1425
tp1521
a(I-40
I1426
tp1522
a(I-40
I1427
tp1523
a(I-40
I1428
tp1524
a(I-40
I1429
tp1525
a(I-40
I1430
tp1526
a(I-40
I1431
tp1527
a(I-40
I1432
tp1528
a(I-40
I1433
tp1529
a(I-40
I1434
tp1530
a(I-40
I1435
tp1531
a(I-40
I1436
tp1532
a(I-40
I1437
tp1533
a(I-40
I1438
tp1534
a(I-40
I1439
tp1535
a(I-40
I1440
tp1536
a(I-40
I1441
tp1537
a(I-40
I1442
tp1538
a(I-40
I1443
tp1539
a(I-40
I1444
tp1540
a(I-40
I1445
tp1541
a(I-40
I1446
tp1542
a(I-40
I1447
tp1543
a(I-40
I1448
tp1544
a(I-40
I1449
tp1545
a(I-40
I1450
tp1546
a(I-40
I1451
tp1547
a(I-40
I1452
tp1548
a(I-40
I1453
tp1549
a(I-50
I1454
tp1550
a(I-45
I1455
tp1551
a(I-40
I1456
tp1552
a(I-40
I1457
tp1553
a(I-40
I1458
tp1554
a(I-40
I1459
tp1555
a(I-45
I1460
tp1556
a(I-40
I1461
tp1557
a(I-40
I1462
tp1558
a(I-40
I1463
tp1559
a(I-40
I1464
tp1560
a(I-40
I1465
tp1561
a(I-40
I1466
tp1562
a(I-40
I1467
tp1563
a(I-40
I1468
tp1564
a(I-40
I1469
tp1565
a(I-40
I1470
tp1566
a(I-40
I1471
tp1567
a(I-40
I1472
tp1568
a(I-40
I1473
tp1569
a(I-40
I1474
tp1570
a(I-40
I1475
tp1571
a(I-40
I1476
tp1572
a(I-40
I1477
tp1573
a(I-40
I1478
tp1574
a(I-40
I1479
tp1575
a(I-40
I1480
tp1576
a(I-40
I1481
tp1577
a(I-40
I1482
tp1578
a(I-40
I1483
tp1579
a(I-40
I1484
tp1580
a(I-40
I1485
tp1581
a(I-40
I1486
tp1582
a(I-40
I1487
tp1583
a(I-40
I1488
tp1584
a(I-40
I1489
tp1585
a(I-40
I1490
tp1586
a(I-40
I1491
tp1587
a(I-40
I1492
tp1588
a(I-40
I1493
tp1589
a(I-40
I1494
tp1590
a(I-45
I1495
tp1591
a(I-40
I1496
tp1592
a(I-40
I1497
tp1593
a(I-40
I1498
tp1594
a(I-40
I1499
tp1595
a(I-40
I1500
tp1596
a(I-45
I1501
tp1597
a(I-40
I1502
tp1598
a(I-40
I1503
tp1599
a(I-40
I1504
tp1600
a(I-40
I1505
tp1601
a(I-40
I1506
tp1602
a(I-40
I1507
tp1603
a(I-40
I1508
tp1604
a(I-40
I1509
tp1605
a(I-40
I1510
tp1606
a(I-40
I1511
tp1607
a(I-40
I1512
tp1608
a(I-40
I1513
tp1609
a(I-40
I1514
tp1610
a(I-40
I1515
tp1611
a(I-40
I1516
tp1612
a(I-40
I1517
tp1613
a(I-40
I1518
tp1614
a(I-40
I1519
tp1615
a(I-40
I1520
tp1616
a(I-40
I1521
tp1617
a(I-40
I1522
tp1618
a(I-40
I1523
tp1619
a(I-40
I1524
tp1620
a(I-40
I1525
tp1621
a(I-40
I1526
tp1622
a(I-40
I1527
tp1623
a(I-40
I1528
tp1624
a(I-40
I1529
tp1625
a(I-40
I1530
tp1626
as.