(dp0
S'policy'
p1
(dp2
(I50
I3
tp3
cnumpy.core.multiarray
scalar
p4
(cnumpy
dtype
p5
(S'i8'
p6
I0
I1
tp7
Rp8
(I3
S'<'
p9
NNNI-1
I-1
I0
tp10
bS'\x01\x00\x00\x00\x00\x00\x00\x00'
p11
tp12
Rp13
s(I70
I11
tp14
g4
(g8
S'\x01\x00\x00\x00\x00\x00\x00\x00'
p15
tp16
Rp17
s(I90
I0
tp18
g4
(g8
S'\x01\x00\x00\x00\x00\x00\x00\x00'
p19
tp20
Rp21
s(I70
I0
tp22
g4
(g8
S'\x01\x00\x00\x00\x00\x00\x00\x00'
p23
tp24
Rp25
s(I80
I0
tp26
g4
(g8
S'\x01\x00\x00\x00\x00\x00\x00\x00'
p27
tp28
Rp29
s(I90
I4
tp30
g4
(g8
S'\x01\x00\x00\x00\x00\x00\x00\x00'
p31
tp32
Rp33
s(I60
I0
tp34
g4
(g8
S'\x01\x00\x00\x00\x00\x00\x00\x00'
p35
tp36
Rp37
s(I20
I10
tp38
g4
(g8
S'\x01\x00\x00\x00\x00\x00\x00\x00'
p39
tp40
Rp41
s(I100
I16
tp42
g4
(g8
S'\x01\x00\x00\x00\x00\x00\x00\x00'
p43
tp44
Rp45
s(I100
I1
tp46
g4
(g8
S'\x01\x00\x00\x00\x00\x00\x00\x00'
p47
tp48
Rp49
s(I90
I13
tp50
g4
(g8
S'\x01\x00\x00\x00\x00\x00\x00\x00'
p51
tp52
Rp53
s(I30
I13
tp54
g4
(g8
S'\x01\x00\x00\x00\x00\x00\x00\x00'
p55
tp56
Rp57
s(I80
I12
tp58
g4
(g8
S'\x01\x00\x00\x00\x00\x00\x00\x00'
p59
tp60
Rp61
s(I80
I7
tp62
g4
(g8
S'\x01\x00\x00\x00\x00\x00\x00\x00'
p63
tp64
Rp65
s(I50
I0
tp66
g4
(g8
S'\x01\x00\x00\x00\x00\x00\x00\x00'
p67
tp68
Rp69
s(I90
I6
tp70
g4
(g8
S'\x01\x00\x00\x00\x00\x00\x00\x00'
p71
tp72
Rp73
s(I80
I5
tp74
g4
(g8
S'\x01\x00\x00\x00\x00\x00\x00\x00'
p75
tp76
Rp77
s(I30
I0
tp78
g4
(g8
S'\x01\x00\x00\x00\x00\x00\x00\x00'
p79
tp80
Rp81
s(I70
I8
tp82
g4
(g8
S'\x01\x00\x00\x00\x00\x00\x00\x00'
p83
tp84
Rp85
s(I40
I0
tp86
g4
(g8
S'\x01\x00\x00\x00\x00\x00\x00\x00'
p87
tp88
Rp89
s(I100
I14
tp90
g4
(g8
S'\x01\x00\x00\x00\x00\x00\x00\x00'
p91
tp92
Rp93
s(I20
I0
tp94
g4
(g8
S'\x01\x00\x00\x00\x00\x00\x00\x00'
p95
tp96
Rp97
s(I90
I17
tp98
g4
(g8
S'\x01\x00\x00\x00\x00\x00\x00\x00'
p99
tp100
Rp101
s(I70
I5
tp102
g4
(g8
S'\x01\x00\x00\x00\x00\x00\x00\x00'
p103
tp104
Rp105
s(I50
I8
tp106
g4
(g8
S'\x01\x00\x00\x00\x00\x00\x00\x00'
p107
tp108
Rp109
s(I70
I14
tp110
g4
(g8
S'\x01\x00\x00\x00\x00\x00\x00\x00'
p111
tp112
Rp113
s(I40
I5
tp114
g4
(g8
S'\x01\x00\x00\x00\x00\x00\x00\x00'
p115
tp116
Rp117
s(I100
I6
tp118
g4
(g8
S'\x01\x00\x00\x00\x00\x00\x00\x00'
p119
tp120
Rp121
s(I90
I15
tp122
g4
(g8
S'\x02\x00\x00\x00\x00\x00\x00\x00'
p123
tp124
Rp125
s(I0
I0
tp126
g4
(g8
S'\x00\x00\x00\x00\x00\x00\x00\x00'
p127
tp128
Rp129
s(I50
I12
tp130
g4
(g8
S'\x01\x00\x00\x00\x00\x00\x00\x00'
p131
tp132
Rp133
s(I100
I10
tp134
g4
(g8
S'\x01\x00\x00\x00\x00\x00\x00\x00'
p135
tp136
Rp137
s(I40
I10
tp138
g4
(g8
S'\x01\x00\x00\x00\x00\x00\x00\x00'
p139
tp140
Rp141
s(I80
I2
tp142
g4
(g8
S'\x02\x00\x00\x00\x00\x00\x00\x00'
p143
tp144
Rp145
s(I50
I16
tp146
g4
(g8
S'\x01\x00\x00\x00\x00\x00\x00\x00'
p147
tp148
Rp149
s(I70
I2
tp150
g4
(g8
S'\x01\x00\x00\x00\x00\x00\x00\x00'
p151
tp152
Rp153
s(I90
I11
tp154
g4
(g8
S'\x01\x00\x00\x00\x00\x00\x00\x00'
p155
tp156
Rp157
s(I100
I3
tp158
g4
(g8
S'\x01\x00\x00\x00\x00\x00\x00\x00'
p159
tp160
Rp161
s(I10
I0
tp162
g4
(g8
S'\x01\x00\x00\x00\x00\x00\x00\x00'
p163
tp164
Rp165
s(I60
I13
tp166
g4
(g8
S'\x01\x00\x00\x00\x00\x00\x00\x00'
p167
tp168
Rp169
s(I70
I17
tp170
g4
(g8
S'\x01\x00\x00\x00\x00\x00\x00\x00'
p171
tp172
Rp173
s(I90
I2
tp174
g4
(g8
S'\x01\x00\x00\x00\x00\x00\x00\x00'
p175
tp176
Rp177
s(I60
I6
tp178
g4
(g8
S'\x01\x00\x00\x00\x00\x00\x00\x00'
p179
tp180
Rp181
s(I40
I15
tp182
g4
(g8
S'\x01\x00\x00\x00\x00\x00\x00\x00'
p183
tp184
Rp185
s(I30
I6
tp186
g4
(g8
S'\x00\x00\x00\x00\x00\x00\x00\x00'
p187
tp188
Rp189
s(I80
I17
tp190
g4
(g8
S'\x01\x00\x00\x00\x00\x00\x00\x00'
p191
tp192
Rp193
s(I80
I10
tp194
g4
(g8
S'\x02\x00\x00\x00\x00\x00\x00\x00'
p195
tp196
Rp197
s(I60
I16
tp198
g4
(g8
S'\x01\x00\x00\x00\x00\x00\x00\x00'
p199
tp200
Rp201
s(I60
I10
tp202
g4
(g8
S'\x01\x00\x00\x00\x00\x00\x00\x00'
p203
tp204
Rp205
s(I100
I8
tp206
g4
(g8
S'\x01\x00\x00\x00\x00\x00\x00\x00'
p207
tp208
Rp209
s(I60
I3
tp210
g4
(g8
S'\x01\x00\x00\x00\x00\x00\x00\x00'
p211
tp212
Rp213
s(I90
I8
tp214
g4
(g8
S'\x01\x00\x00\x00\x00\x00\x00\x00'
p215
tp216
Rp217
s(I100
I12
tp218
g4
(g8
S'\x01\x00\x00\x00\x00\x00\x00\x00'
p219
tp220
Rp221
s(I80
I15
tp222
g4
(g8
S'\x01\x00\x00\x00\x00\x00\x00\x00'
p223
tp224
Rp225
s(I100
I18
tp226
g4
(g8
S'\x01\x00\x00\x00\x00\x00\x00\x00'
p227
tp228
Rp229
s(I100
I0
tp230
g4
(g8
S'\x01\x00\x00\x00\x00\x00\x00\x00'
p231
tp232
Rp233
ssS'rewards'
p234
(lp235
(I-510
I0
tp236
a(I-545
I1
tp237
a(I-560
I2
tp238
a(I-530
I3
tp239
a(I-485
I4
tp240
a(I-430
I5
tp241
a(I-390
I6
tp242
a(I-440
I7
tp243
a(I-485
I8
tp244
a(I-440
I9
tp245
a(I-540
I10
tp246
a(I-445
I11
tp247
a(I-425
I12
tp248
a(I-480
I13
tp249
a(I-555
I14
tp250
a(I-420
I15
tp251
a(I-460
I16
tp252
a(I-435
I17
tp253
a(I-430
I18
tp254
a(I-515
I19
tp255
a(I-460
I20
tp256
a(I-460
I21
tp257
a(I-385
I22
tp258
a(I-455
I23
tp259
a(I-445
I24
tp260
a(I-415
I25
tp261
a(I-420
I26
tp262
a(I-650
I27
tp263
a(I-430
I28
tp264
a(I-450
I29
tp265
a(I-420
I30
tp266
a(I-480
I31
tp267
a(I-425
I32
tp268
a(I-430
I33
tp269
a(I-365
I34
tp270
a(I-400
I35
tp271
a(I-360
I36
tp272
a(I-415
I37
tp273
a(I-460
I38
tp274
a(I-405
I39
tp275
a(I-485
I40
tp276
a(I-585
I41
tp277
a(I-405
I42
tp278
a(I-365
I43
tp279
a(I-370
I44
tp280
a(I-390
I45
tp281
a(I-370
I46
tp282
a(I-380
I47
tp283
a(I-345
I48
tp284
a(I-425
I49
tp285
a(I-410
I50
tp286
a(I-405
I51
tp287
a(I-430
I52
tp288
a(I-360
I53
tp289
a(I-390
I54
tp290
a(I-385
I55
tp291
a(I-315
I56
tp292
a(I-360
I57
tp293
a(I-390
I58
tp294
a(I-400
I59
tp295
a(I-290
I60
tp296
a(I-340
I61
tp297
a(I-365
I62
tp298
a(I-380
I63
tp299
a(I-390
I64
tp300
a(I-385
I65
tp301
a(I-310
I66
tp302
a(I-330
I67
tp303
a(I-375
I68
tp304
a(I-390
I69
tp305
a(I-375
I70
tp306
a(I-385
I71
tp307
a(I-345
I72
tp308
a(I-420
I73
tp309
a(I-340
I74
tp310
a(I-375
I75
tp311
a(I-645
I76
tp312
a(I-355
I77
tp313
a(I-360
I78
tp314
a(I-350
I79
tp315
a(I-385
I80
tp316
a(I-320
I81
tp317
a(I-270
I82
tp318
a(I-340
I83
tp319
a(I-330
I84
tp320
a(I-320
I85
tp321
a(I-305
I86
tp322
a(I-265
I87
tp323
a(I-450
I88
tp324
a(I-250
I89
tp325
a(I-685
I90
tp326
a(I-385
I91
tp327
a(I-300
I92
tp328
a(I-325
I93
tp329
a(I-295
I94
tp330
a(I-355
I95
tp331
a(I-335
I96
tp332
a(I-675
I97
tp333
a(I-310
I98
tp334
a(I-320
I99
tp335
a(I-365
I100
tp336
a(I-310
I101
tp337
a(I-230
I102
tp338
a(I-275
I103
tp339
a(I-255
I104
tp340
a(I-340
I105
tp341
a(I-360
I106
tp342
a(I-290
I107
tp343
a(I-280
I108
tp344
a(I-315
I109
tp345
a(I-350
I110
tp346
a(I-290
I111
tp347
a(I-305
I112
tp348
a(I-645
I113
tp349
a(I-290
I114
tp350
a(I-315
I115
tp351
a(I-265
I116
tp352
a(I-255
I117
tp353
a(I-315
I118
tp354
a(I-255
I119
tp355
a(I-350
I120
tp356
a(I-275
I121
tp357
a(I-275
I122
tp358
a(I-325
I123
tp359
a(I-230
I124
tp360
a(I-305
I125
tp361
a(I-555
I126
tp362
a(I-280
I127
tp363
a(I-370
I128
tp364
a(I-245
I129
tp365
a(I-295
I130
tp366
a(I-210
I131
tp367
a(I-235
I132
tp368
a(I-295
I133
tp369
a(I-585
I134
tp370
a(I-270
I135
tp371
a(I-280
I136
tp372
a(I-325
I137
tp373
a(I-320
I138
tp374
a(I-250
I139
tp375
a(I-215
I140
tp376
a(I-275
I141
tp377
a(I-265
I142
tp378
a(I-225
I143
tp379
a(I-255
I144
tp380
a(I-195
I145
tp381
a(I-245
I146
tp382
a(I-295
I147
tp383
a(I-180
I148
tp384
a(I-250
I149
tp385
a(I-280
I150
tp386
a(I-360
I151
tp387
a(I-305
I152
tp388
a(I-275
I153
tp389
a(I-245
I154
tp390
a(I-255
I155
tp391
a(I-595
I156
tp392
a(I-225
I157
tp393
a(I-210
I158
tp394
a(I-225
I159
tp395
a(I-205
I160
tp396
a(I-195
I161
tp397
a(I-270
I162
tp398
a(I-195
I163
tp399
a(I-215
I164
tp400
a(I-220
I165
tp401
a(I-230
I166
tp402
a(I-275
I167
tp403
a(I-235
I168
tp404
a(I-600
I169
tp405
a(I-210
I170
tp406
a(I-200
I171
tp407
a(I-215
I172
tp408
a(I-240
I173
tp409
a(I-265
I174
tp410
a(I-255
I175
tp411
a(I-210
I176
tp412
a(I-160
I177
tp413
a(I-235
I178
tp414
a(I-225
I179
tp415
a(I-245
I180
tp416
a(I-195
I181
tp417
a(I-235
I182
tp418
a(I-210
I183
tp419
a(I-210
I184
tp420
a(I-530
I185
tp421
a(I-220
I186
tp422
a(I-155
I187
tp423
a(I-170
I188
tp424
a(I-220
I189
tp425
a(I-225
I190
tp426
a(I-185
I191
tp427
a(I-235
I192
tp428
a(I-165
I193
tp429
a(I-205
I194
tp430
a(I-250
I195
tp431
a(I-180
I196
tp432
a(I-235
I197
tp433
a(I-210
I198
tp434
a(I-210
I199
tp435
a(I-175
I200
tp436
a(I-160
I201
tp437
a(I-210
I202
tp438
a(I-165
I203
tp439
a(I-135
I204
tp440
a(I-300
I205
tp441
a(I-215
I206
tp442
a(I-185
I207
tp443
a(I-125
I208
tp444
a(I-195
I209
tp445
a(I-150
I210
tp446
a(I-175
I211
tp447
a(I-175
I212
tp448
a(I-150
I213
tp449
a(I-195
I214
tp450
a(I-195
I215
tp451
a(I-205
I216
tp452
a(I-175
I217
tp453
a(I-200
I218
tp454
a(I-155
I219
tp455
a(I-160
I220
tp456
a(I-195
I221
tp457
a(I-175
I222
tp458
a(I-155
I223
tp459
a(I-140
I224
tp460
a(I-195
I225
tp461
a(I-180
I226
tp462
a(I-165
I227
tp463
a(I-145
I228
tp464
a(I-575
I229
tp465
a(I-170
I230
tp466
a(I-165
I231
tp467
a(I-210
I232
tp468
a(I-165
I233
tp469
a(I-200
I234
tp470
a(I-195
I235
tp471
a(I-170
I236
tp472
a(I-170
I237
tp473
a(I-155
I238
tp474
a(I-175
I239
tp475
a(I-150
I240
tp476
a(I-180
I241
tp477
a(I-165
I242
tp478
a(I-205
I243
tp479
a(I-180
I244
tp480
a(I-150
I245
tp481
a(I-175
I246
tp482
a(I-145
I247
tp483
a(I-550
I248
tp484
a(I-150
I249
tp485
a(I-135
I250
tp486
a(I-170
I251
tp487
a(I-240
I252
tp488
a(I-135
I253
tp489
a(I-155
I254
tp490
a(I-145
I255
tp491
a(I-160
I256
tp492
a(I-185
I257
tp493
a(I-140
I258
tp494
a(I-180
I259
tp495
a(I-175
I260
tp496
a(I-145
I261
tp497
a(I-160
I262
tp498
a(I-145
I263
tp499
a(I-140
I264
tp500
a(I-140
I265
tp501
a(I-170
I266
tp502
a(I-145
I267
tp503
a(I-140
I268
tp504
a(I-150
I269
tp505
a(I-135
I270
tp506
a(I-600
I271
tp507
a(I-175
I272
tp508
a(I-160
I273
tp509
a(I-135
I274
tp510
a(I-130
I275
tp511
a(I-135
I276
tp512
a(I-150
I277
tp513
a(I-125
I278
tp514
a(I-165
I279
tp515
a(I-110
I280
tp516
a(I-95
I281
tp517
a(I-125
I282
tp518
a(I-115
I283
tp519
a(I-155
I284
tp520
a(I-155
I285
tp521
a(I-115
I286
tp522
a(I-170
I287
tp523
a(I-170
I288
tp524
a(I-170
I289
tp525
a(I-135
I290
tp526
a(I-155
I291
tp527
a(I-640
I292
tp528
a(I-130
I293
tp529
a(I-135
I294
tp530
a(I-130
I295
tp531
a(I-130
I296
tp532
a(I-120
I297
tp533
a(I-110
I298
tp534
a(I-120
I299
tp535
a(I-105
I300
tp536
a(I-125
I301
tp537
a(I-130
I302
tp538
a(I-150
I303
tp539
a(I-115
I304
tp540
a(I-145
I305
tp541
a(I-125
I306
tp542
a(I-140
I307
tp543
a(I-570
I308
tp544
a(I-110
I309
tp545
a(I-130
I310
tp546
a(I-145
I311
tp547
a(I-145
I312
tp548
a(I-105
I313
tp549
a(I-150
I314
tp550
a(I-90
I315
tp551
a(I-150
I316
tp552
a(I-150
I317
tp553
a(I-135
I318
tp554
a(I-100
I319
tp555
a(I-100
I320
tp556
a(I-125
I321
tp557
a(I-105
I322
tp558
a(I-145
I323
tp559
a(I-140
I324
tp560
a(I-120
I325
tp561
a(I-160
I326
tp562
a(I-125
I327
tp563
a(I-120
I328
tp564
a(I-90
I329
tp565
a(I-150
I330
tp566
a(I-105
I331
tp567
a(I-115
I332
tp568
a(I-130
I333
tp569
a(I-115
I334
tp570
a(I-85
I335
tp571
a(I-105
I336
tp572
a(I-110
I337
tp573
a(I-100
I338
tp574
a(I-130
I339
tp575
a(I-135
I340
tp576
a(I-135
I341
tp577
a(I-105
I342
tp578
a(I-95
I343
tp579
a(I-120
I344
tp580
a(I-130
I345
tp581
a(I-120
I346
tp582
a(I-120
I347
tp583
a(I-90
I348
tp584
a(I-170
I349
tp585
a(I-95
I350
tp586
a(I-105
I351
tp587
a(I-85
I352
tp588
a(I-135
I353
tp589
a(I-100
I354
tp590
a(I-550
I355
tp591
a(I-135
I356
tp592
a(I-65
I357
tp593
a(I-130
I358
tp594
a(I-125
I359
tp595
a(I-110
I360
tp596
a(I-90
I361
tp597
a(I-120
I362
tp598
a(I-140
I363
tp599
a(I-80
I364
tp600
a(I-110
I365
tp601
a(I-120
I366
tp602
a(I-140
I367
tp603
a(I-120
I368
tp604
a(I-90
I369
tp605
a(I-115
I370
tp606
a(I-140
I371
tp607
a(I-535
I372
tp608
a(I-565
I373
tp609
a(I-160
I374
tp610
a(I-80
I375
tp611
a(I-110
I376
tp612
a(I-105
I377
tp613
a(I-110
I378
tp614
a(I-110
I379
tp615
a(I-130
I380
tp616
a(I-100
I381
tp617
a(I-115
I382
tp618
a(I-155
I383
tp619
a(I-105
I384
tp620
a(I-70
I385
tp621
a(I-550
I386
tp622
a(I-85
I387
tp623
a(I-100
I388
tp624
a(I-100
I389
tp625
a(I-90
I390
tp626
a(I-115
I391
tp627
a(I-85
I392
tp628
a(I-110
I393
tp629
a(I-120
I394
tp630
a(I-180
I395
tp631
a(I-95
I396
tp632
a(I-120
I397
tp633
a(I-140
I398
tp634
a(I-125
I399
tp635
a(I-95
I400
tp636
a(I-100
I401
tp637
a(I-110
I402
tp638
a(I-75
I403
tp639
a(I-80
I404
tp640
a(I-90
I405
tp641
a(I-125
I406
tp642
a(I-75
I407
tp643
a(I-85
I408
tp644
a(I-115
I409
tp645
a(I-115
I410
tp646
a(I-95
I411
tp647
a(I-100
I412
tp648
a(I-115
I413
tp649
a(I-115
I414
tp650
a(I-120
I415
tp651
a(I-105
I416
tp652
a(I-125
I417
tp653
a(I-125
I418
tp654
a(I-130
I419
tp655
a(I-145
I420
tp656
a(I-85
I421
tp657
a(I-140
I422
tp658
a(I-95
I423
tp659
a(I-115
I424
tp660
a(I-85
I425
tp661
a(I-100
I426
tp662
a(I-100
I427
tp663
a(I-135
I428
tp664
a(I-90
I429
tp665
a(I-90
I430
tp666
a(I-90
I431
tp667
a(I-110
I432
tp668
a(I-110
I433
tp669
a(I-110
I434
tp670
a(I-125
I435
tp671
a(I-100
I436
tp672
a(I-90
I437
tp673
a(I-85
I438
tp674
a(I-80
I439
tp675
a(I-95
I440
tp676
a(I-105
I441
tp677
a(I-115
I442
tp678
a(I-105
I443
tp679
a(I-100
I444
tp680
a(I-130
I445
tp681
a(I-120
I446
tp682
a(I-95
I447
tp683
a(I-160
I448
tp684
a(I-95
I449
tp685
a(I-90
I450
tp686
a(I-115
I451
tp687
a(I-100
I452
tp688
a(I-100
I453
tp689
a(I-70
I454
tp690
a(I-110
I455
tp691
a(I-80
I456
tp692
a(I-105
I457
tp693
a(I-115
I458
tp694
a(I-110
I459
tp695
a(I-120
I460
tp696
a(I-125
I461
tp697
a(I-170
I462
tp698
a(I-90
I463
tp699
a(I-50
I464
tp700
a(I-100
I465
tp701
a(I-80
I466
tp702
a(I-100
I467
tp703
a(I-105
I468
tp704
a(I-100
I469
tp705
a(I-145
I470
tp706
a(I-95
I471
tp707
a(I-85
I472
tp708
a(I-175
I473
tp709
a(I-110
I474
tp710
a(I-180
I475
tp711
a(I-110
I476
tp712
a(I-150
I477
tp713
a(I-85
I478
tp714
a(I-90
I479
tp715
a(I-100
I480
tp716
a(I-90
I481
tp717
a(I-70
I482
tp718
a(I-85
I483
tp719
a(I-105
I484
tp720
a(I-90
I485
tp721
a(I-90
I486
tp722
a(I-90
I487
tp723
a(I-145
I488
tp724
a(I-70
I489
tp725
a(I-550
I490
tp726
a(I-155
I491
tp727
a(I-65
I492
tp728
a(I-250
I493
tp729
a(I-560
I494
tp730
a(I-105
I495
tp731
a(I-140
I496
tp732
a(I-90
I497
tp733
a(I-95
I498
tp734
a(I-145
I499
tp735
a(I-130
I500
tp736
a(I-105
I501
tp737
a(I-110
I502
tp738
a(I-85
I503
tp739
a(I-155
I504
tp740
a(I-130
I505
tp741
a(I-235
I506
tp742
a(I-115
I507
tp743
a(I-105
I508
tp744
a(I-150
I509
tp745
a(I-205
I510
tp746
a(I-115
I511
tp747
a(I-70
I512
tp748
a(I-100
I513
tp749
a(I-170
I514
tp750
a(I-170
I515
tp751
a(I-70
I516
tp752
a(I-95
I517
tp753
a(I-80
I518
tp754
a(I-80
I519
tp755
a(I-110
I520
tp756
a(I-55
I521
tp757
a(I-215
I522
tp758
a(I-110
I523
tp759
a(I-85
I524
tp760
a(I-115
I525
tp761
a(I-95
I526
tp762
a(I-90
I527
tp763
a(I-505
I528
tp764
a(I-75
I529
tp765
a(I-75
I530
tp766
a(I-110
I531
tp767
a(I-85
I532
tp768
a(I-115
I533
tp769
a(I-110
I534
tp770
a(I-80
I535
tp771
a(I-130
I536
tp772
a(I-100
I537
tp773
a(I-110
I538
tp774
a(I-105
I539
tp775
a(I-95
I540
tp776
a(I-170
I541
tp777
a(I-85
I542
tp778
a(I-115
I543
tp779
a(I-215
I544
tp780
a(I-125
I545
tp781
a(I-85
I546
tp782
a(I-75
I547
tp783
a(I-60
I548
tp784
a(I-95
I549
tp785
a(I-85
I550
tp786
a(I-75
I551
tp787
a(I-115
I552
tp788
a(I-90
I553
tp789
a(I-155
I554
tp790
a(I-85
I555
tp791
a(I-85
I556
tp792
a(I-130
I557
tp793
a(I-85
I558
tp794
a(I-65
I559
tp795
a(I-115
I560
tp796
a(I-80
I561
tp797
a(I-50
I562
tp798
a(I-50
I563
tp799
a(I-75
I564
tp800
a(I-80
I565
tp801
a(I-90
I566
tp802
a(I-215
I567
tp803
a(I-65
I568
tp804
a(I-45
I569
tp805
a(I-60
I570
tp806
a(I-80
I571
tp807
a(I-85
I572
tp808
a(I-80
I573
tp809
a(I-315
I574
tp810
a(I-75
I575
tp811
a(I-135
I576
tp812
a(I-135
I577
tp813
a(I-100
I578
tp814
a(I-105
I579
tp815
a(I-95
I580
tp816
a(I-430
I581
tp817
a(I-75
I582
tp818
a(I-90
I583
tp819
a(I-85
I584
tp820
a(I-125
I585
tp821
a(I-95
I586
tp822
a(I-130
I587
tp823
a(I-130
I588
tp824
a(I-170
I589
tp825
a(I-105
I590
tp826
a(I-130
I591
tp827
a(I-240
I592
tp828
a(I-105
I593
tp829
a(I-100
I594
tp830
a(I-80
I595
tp831
a(I-450
I596
tp832
a(I-175
I597
tp833
a(I-60
I598
tp834
a(I-75
I599
tp835
a(I-160
I600
tp836
a(I-80
I601
tp837
a(I-90
I602
tp838
a(I-75
I603
tp839
a(I-75
I604
tp840
a(I-55
I605
tp841
a(I-50
I606
tp842
a(I-80
I607
tp843
a(I-55
I608
tp844
a(I-60
I609
tp845
a(I-65
I610
tp846
a(I-40
I611
tp847
a(I-40
I612
tp848
a(I-60
I613
tp849
a(I-60
I614
tp850
a(I-40
I615
tp851
a(I-595
I616
tp852
a(I-50
I617
tp853
a(I-70
I618
tp854
a(I-85
I619
tp855
a(I-75
I620
tp856
a(I-140
I621
tp857
a(I-90
I622
tp858
a(I-65
I623
tp859
a(I-80
I624
tp860
a(I-105
I625
tp861
a(I-175
I626
tp862
a(I-90
I627
tp863
a(I-105
I628
tp864
a(I-100
I629
tp865
a(I-120
I630
tp866
a(I-60
I631
tp867
a(I-85
I632
tp868
a(I-100
I633
tp869
a(I-235
I634
tp870
a(I-100
I635
tp871
a(I-90
I636
tp872
a(I-125
I637
tp873
a(I-435
I638
tp874
a(I-80
I639
tp875
a(I-60
I640
tp876
a(I-90
I641
tp877
a(I-80
I642
tp878
a(I-65
I643
tp879
a(I-85
I644
tp880
a(I-65
I645
tp881
a(I-60
I646
tp882
a(I-70
I647
tp883
a(I-85
I648
tp884
a(I-65
I649
tp885
a(I-90
I650
tp886
a(I-75
I651
tp887
a(I-80
I652
tp888
a(I-165
I653
tp889
a(I-75
I654
tp890
a(I-95
I655
tp891
a(I-255
I656
tp892
a(I-100
I657
tp893
a(I-90
I658
tp894
a(I-120
I659
tp895
a(I-125
I660
tp896
a(I-105
I661
tp897
a(I-140
I662
tp898
a(I-95
I663
tp899
a(I-135
I664
tp900
a(I-60
I665
tp901
a(I-75
I666
tp902
a(I-55
I667
tp903
a(I-105
I668
tp904
a(I-65
I669
tp905
a(I-65
I670
tp906
a(I-75
I671
tp907
a(I-85
I672
tp908
a(I-65
I673
tp909
a(I-95
I674
tp910
a(I-90
I675
tp911
a(I-105
I676
tp912
a(I-50
I677
tp913
a(I-100
I678
tp914
a(I-85
I679
tp915
a(I-215
I680
tp916
a(I-120
I681
tp917
a(I-280
I682
tp918
a(I-90
I683
tp919
a(I-490
I684
tp920
a(I-180
I685
tp921
a(I-550
I686
tp922
a(I-90
I687
tp923
a(I-115
I688
tp924
a(I-80
I689
tp925
a(I-95
I690
tp926
a(I-80
I691
tp927
a(I-45
I692
tp928
a(I-40
I693
tp929
a(I-55
I694
tp930
a(I-55
I695
tp931
a(I-60
I696
tp932
a(I-55
I697
tp933
a(I-45
I698
tp934
a(I-45
I699
tp935
a(I-40
I700
tp936
a(I-50
I701
tp937
a(I-55
I702
tp938
a(I-45
I703
tp939
a(I-395
I704
tp940
a(I-65
I705
tp941
a(I-50
I706
tp942
a(I-50
I707
tp943
a(I-45
I708
tp944
a(I-65
I709
tp945
a(I-45
I710
tp946
a(I-50
I711
tp947
a(I-45
I712
tp948
a(I-60
I713
tp949
a(I-65
I714
tp950
a(I-55
I715
tp951
a(I-50
I716
tp952
a(I-70
I717
tp953
a(I-65
I718
tp954
a(I-60
I719
tp955
a(I-70
I720
tp956
a(I-80
I721
tp957
a(I-205
I722
tp958
a(I-80
I723
tp959
a(I-105
I724
tp960
a(I-75
I725
tp961
a(I-110
I726
tp962
a(I-75
I727
tp963
a(I-50
I728
tp964
a(I-45
I729
tp965
a(I-85
I730
tp966
a(I-55
I731
tp967
a(I-130
I732
tp968
a(I-60
I733
tp969
a(I-65
I734
tp970
a(I-65
I735
tp971
a(I-80
I736
tp972
a(I-65
I737
tp973
a(I-60
I738
tp974
a(I-70
I739
tp975
a(I-240
I740
tp976
a(I-150
I741
tp977
a(I-100
I742
tp978
a(I-50
I743
tp979
a(I-40
I744
tp980
a(I-155
I745
tp981
a(I-230
I746
tp982
a(I-65
I747
tp983
a(I-60
I748
tp984
a(I-65
I749
tp985
a(I-90
I750
tp986
a(I-60
I751
tp987
a(I-95
I752
tp988
a(I-65
I753
tp989
a(I-70
I754
tp990
a(I-205
I755
tp991
a(I-70
I756
tp992
a(I-480
I757
tp993
a(I-140
I758
tp994
a(I-135
I759
tp995
a(I-80
I760
tp996
a(I-125
I761
tp997
a(I-80
I762
tp998
a(I-105
I763
tp999
a(I-110
I764
tp1000
a(I-470
I765
tp1001
a(I-95
I766
tp1002
a(I-95
I767
tp1003
a(I-240
I768
tp1004
a(I-105
I769
tp1005
a(I-385
I770
tp1006
a(I-95
I771
tp1007
a(I-95
I772
tp1008
a(I-90
I773
tp1009
a(I-65
I774
tp1010
a(I-75
I775
tp1011
a(I-185
I776
tp1012
a(I-110
I777
tp1013
a(I-80
I778
tp1014
a(I-70
I779
tp1015
a(I-120
I780
tp1016
a(I-60
I781
tp1017
a(I-85
I782
tp1018
a(I-160
I783
tp1019
a(I-215
I784
tp1020
a(I-75
I785
tp1021
a(I-130
I786
tp1022
a(I-70
I787
tp1023
a(I-55
I788
tp1024
a(I-130
I789
tp1025
a(I-65
I790
tp1026
a(I-60
I791
tp1027
a(I-60
I792
tp1028
a(I-105
I793
tp1029
a(I-55
I794
tp1030
a(I-130
I795
tp1031
a(I-940
I796
tp1032
a(I-175
I797
tp1033
a(I-40
I798
tp1034
a(I-45
I799
tp1035
a(I-50
I800
tp1036
a(I-50
I801
tp1037
a(I-465
I802
tp1038
a(I-135
I803
tp1039
a(I-85
I804
tp1040
a(I-80
I805
tp1041
a(I-150
I806
tp1042
a(I-490
I807
tp1043
a(I-60
I808
tp1044
a(I-50
I809
tp1045
a(I-80
I810
tp1046
a(I-80
I811
tp1047
a(I-55
I812
tp1048
a(I-70
I813
tp1049
a(I-70
I814
tp1050
a(I-50
I815
tp1051
a(I-50
I816
tp1052
a(I-60
I817
tp1053
a(I-60
I818
tp1054
a(I-75
I819
tp1055
a(I-100
I820
tp1056
a(I-145
I821
tp1057
a(I-70
I822
tp1058
a(I-95
I823
tp1059
a(I-65
I824
tp1060
a(I-85
I825
tp1061
a(I-65
I826
tp1062
a(I-90
I827
tp1063
a(I-85
I828
tp1064
a(I-85
I829
tp1065
a(I-70
I830
tp1066
a(I-365
I831
tp1067
a(I-105
I832
tp1068
a(I-55
I833
tp1069
a(I-120
I834
tp1070
a(I-440
I835
tp1071
a(I-45
I836
tp1072
a(I-40
I837
tp1073
a(I-235
I838
tp1074
a(I-60
I839
tp1075
a(I-65
I840
tp1076
a(I-50
I841
tp1077
a(I-45
I842
tp1078
a(I-60
I843
tp1079
a(I-105
I844
tp1080
a(I-170
I845
tp1081
a(I-40
I846
tp1082
a(I-40
I847
tp1083
a(I-40
I848
tp1084
a(I-50
I849
tp1085
a(I-50
I850
tp1086
a(I-45
I851
tp1087
a(I-40
I852
tp1088
a(I-40
I853
tp1089
a(I-45
I854
tp1090
a(I-505
I855
tp1091
a(I-45
I856
tp1092
a(I-45
I857
tp1093
a(I-40
I858
tp1094
a(I-40
I859
tp1095
a(I-45
I860
tp1096
a(I-45
I861
tp1097
a(I-50
I862
tp1098
a(I-55
I863
tp1099
a(I-50
I864
tp1100
a(I-40
I865
tp1101
a(I-40
I866
tp1102
a(I-50
I867
tp1103
a(I-515
I868
tp1104
a(I-45
I869
tp1105
a(I-40
I870
tp1106
a(I-40
I871
tp1107
a(I-50
I872
tp1108
a(I-50
I873
tp1109
a(I-40
I874
tp1110
a(I-60
I875
tp1111
a(I-40
I876
tp1112
a(I-55
I877
tp1113
a(I-55
I878
tp1114
a(I-40
I879
tp1115
a(I-40
I880
tp1116
a(I-45
I881
tp1117
a(I-40
I882
tp1118
a(I-50
I883
tp1119
a(I-55
I884
tp1120
a(I-45
I885
tp1121
a(I-60
I886
tp1122
a(I-55
I887
tp1123
a(I-40
I888
tp1124
a(I-50
I889
tp1125
a(I-55
I890
tp1126
a(I-40
I891
tp1127
a(I-40
I892
tp1128
a(I-45
I893
tp1129
a(I-50
I894
tp1130
a(I-40
I895
tp1131
a(I-40
I896
tp1132
a(I-45
I897
tp1133
a(I-60
I898
tp1134
a(I-45
I899
tp1135
a(I-45
I900
tp1136
a(I-45
I901
tp1137
a(I-55
I902
tp1138
a(I-40
I903
tp1139
a(I-40
I904
tp1140
a(I-40
I905
tp1141
a(I-50
I906
tp1142
a(I-45
I907
tp1143
a(I-40
I908
tp1144
a(I-50
I909
tp1145
a(I-40
I910
tp1146
a(I-45
I911
tp1147
a(I-45
I912
tp1148
a(I-50
I913
tp1149
a(I-55
I914
tp1150
a(I-55
I915
tp1151
a(I-55
I916
tp1152
a(I-40
I917
tp1153
a(I-40
I918
tp1154
a(I-50
I919
tp1155
a(I-45
I920
tp1156
a(I-50
I921
tp1157
a(I-50
I922
tp1158
a(I-45
I923
tp1159
a(I-45
I924
tp1160
a(I-55
I925
tp1161
a(I-40
I926
tp1162
a(I-40
I927
tp1163
a(I-40
I928
tp1164
a(I-50
I929
tp1165
a(I-450
I930
tp1166
a(I-40
I931
tp1167
a(I-40
I932
tp1168
a(I-40
I933
tp1169
a(I-40
I934
tp1170
a(I-55
I935
tp1171
a(I-40
I936
tp1172
a(I-40
I937
tp1173
a(I-45
I938
tp1174
a(I-40
I939
tp1175
a(I-45
I940
tp1176
a(I-45
I941
tp1177
a(I-40
I942
tp1178
a(I-55
I943
tp1179
a(I-45
I944
tp1180
a(I-50
I945
tp1181
a(I-40
I946
tp1182
a(I-45
I947
tp1183
a(I-55
I948
tp1184
a(I-40
I949
tp1185
a(I-60
I950
tp1186
a(I-45
I951
tp1187
a(I-45
I952
tp1188
a(I-40
I953
tp1189
a(I-40
I954
tp1190
a(I-40
I955
tp1191
a(I-45
I956
tp1192
a(I-40
I957
tp1193
a(I-40
I958
tp1194
a(I-50
I959
tp1195
a(I-50
I960
tp1196
a(I-40
I961
tp1197
a(I-40
I962
tp1198
a(I-40
I963
tp1199
a(I-40
I964
tp1200
a(I-40
I965
tp1201
a(I-45
I966
tp1202
a(I-40
I967
tp1203
a(I-40
I968
tp1204
a(I-40
I969
tp1205
a(I-55
I970
tp1206
a(I-40
I971
tp1207
a(I-45
I972
tp1208
a(I-45
I973
tp1209
a(I-50
I974
tp1210
a(I-40
I975
tp1211
a(I-40
I976
tp1212
a(I-40
I977
tp1213
a(I-40
I978
tp1214
a(I-45
I979
tp1215
a(I-40
I980
tp1216
a(I-40
I981
tp1217
a(I-40
I982
tp1218
a(I-50
I983
tp1219
a(I-40
I984
tp1220
a(I-40
I985
tp1221
a(I-40
I986
tp1222
a(I-60
I987
tp1223
a(I-40
I988
tp1224
a(I-40
I989
tp1225
a(I-40
I990
tp1226
a(I-40
I991
tp1227
a(I-40
I992
tp1228
a(I-55
I993
tp1229
a(I-45
I994
tp1230
a(I-45
I995
tp1231
a(I-45
I996
tp1232
a(I-40
I997
tp1233
a(I-50
I998
tp1234
a(I-45
I999
tp1235
a(I-60
I1000
tp1236
a(I-65
I1001
tp1237
a(I-55
I1002
tp1238
a(I-40
I1003
tp1239
a(I-40
I1004
tp1240
a(I-40
I1005
tp1241
a(I-40
I1006
tp1242
a(I-45
I1007
tp1243
a(I-50
I1008
tp1244
a(I-55
I1009
tp1245
a(I-40
I1010
tp1246
a(I-50
I1011
tp1247
a(I-40
I1012
tp1248
a(I-40
I1013
tp1249
a(I-40
I1014
tp1250
a(I-50
I1015
tp1251
a(I-40
I1016
tp1252
a(I-45
I1017
tp1253
a(I-40
I1018
tp1254
a(I-40
I1019
tp1255
a(I-40
I1020
tp1256
a(I-40
I1021
tp1257
a(I-40
I1022
tp1258
a(I-45
I1023
tp1259
a(I-55
I1024
tp1260
a(I-40
I1025
tp1261
a(I-40
I1026
tp1262
a(I-40
I1027
tp1263
a(I-40
I1028
tp1264
a(I-40
I1029
tp1265
a(I-40
I1030
tp1266
a(I-40
I1031
tp1267
a(I-50
I1032
tp1268
a(I-45
I1033
tp1269
a(I-45
I1034
tp1270
a(I-40
I1035
tp1271
a(I-40
I1036
tp1272
a(I-40
I1037
tp1273
a(I-40
I1038
tp1274
a(I-50
I1039
tp1275
a(I-40
I1040
tp1276
a(I-45
I1041
tp1277
a(I-45
I1042
tp1278
a(I-60
I1043
tp1279
a(I-45
I1044
tp1280
a(I-55
I1045
tp1281
a(I-100
I1046
tp1282
a(I-50
I1047
tp1283
a(I-40
I1048
tp1284
a(I-55
I1049
tp1285
a(I-40
I1050
tp1286
a(I-40
I1051
tp1287
a(I-40
I1052
tp1288
a(I-45
I1053
tp1289
a(I-45
I1054
tp1290
a(I-45
I1055
tp1291
a(I-45
I1056
tp1292
a(I-40
I1057
tp1293
a(I-40
I1058
tp1294
a(I-45
I1059
tp1295
a(I-40
I1060
tp1296
a(I-45
I1061
tp1297
a(I-40
I1062
tp1298
a(I-40
I1063
tp1299
a(I-40
I1064
tp1300
a(I-40
I1065
tp1301
a(I-40
I1066
tp1302
a(I-40
I1067
tp1303
a(I-40
I1068
tp1304
a(I-40
I1069
tp1305
a(I-40
I1070
tp1306
a(I-40
I1071
tp1307
a(I-40
I1072
tp1308
a(I-40
I1073
tp1309
a(I-40
I1074
tp1310
a(I-40
I1075
tp1311
a(I-40
I1076
tp1312
a(I-40
I1077
tp1313
a(I-40
I1078
tp1314
a(I-40
I1079
tp1315
a(I-45
I1080
tp1316
a(I-50
I1081
tp1317
a(I-40
I1082
tp1318
a(I-50
I1083
tp1319
a(I-40
I1084
tp1320
a(I-40
I1085
tp1321
a(I-45
I1086
tp1322
a(I-40
I1087
tp1323
a(I-40
I1088
tp1324
a(I-40
I1089
tp1325
a(I-40
I1090
tp1326
a(I-40
I1091
tp1327
a(I-40
I1092
tp1328
a(I-40
I1093
tp1329
a(I-45
I1094
tp1330
a(I-40
I1095
tp1331
a(I-45
I1096
tp1332
a(I-40
I1097
tp1333
a(I-40
I1098
tp1334
a(I-40
I1099
tp1335
a(I-40
I1100
tp1336
a(I-40
I1101
tp1337
a(I-40
I1102
tp1338
a(I-40
I1103
tp1339
a(I-50
I1104
tp1340
a(I-40
I1105
tp1341
a(I-40
I1106
tp1342
a(I-40
I1107
tp1343
a(I-40
I1108
tp1344
a(I-50
I1109
tp1345
a(I-40
I1110
tp1346
a(I-40
I1111
tp1347
a(I-40
I1112
tp1348
a(I-40
I1113
tp1349
a(I-40
I1114
tp1350
a(I-45
I1115
tp1351
a(I-50
I1116
tp1352
a(I-40
I1117
tp1353
a(I-40
I1118
tp1354
a(I-45
I1119
tp1355
a(I-40
I1120
tp1356
a(I-50
I1121
tp1357
a(I-40
I1122
tp1358
a(I-40
I1123
tp1359
a(I-40
I1124
tp1360
a(I-40
I1125
tp1361
a(I-40
I1126
tp1362
a(I-40
I1127
tp1363
a(I-40
I1128
tp1364
a(I-40
I1129
tp1365
a(I-40
I1130
tp1366
a(I-40
I1131
tp1367
a(I-40
I1132
tp1368
a(I-40
I1133
tp1369
a(I-40
I1134
tp1370
a(I-40
I1135
tp1371
a(I-40
I1136
tp1372
a(I-40
I1137
tp1373
a(I-40
I1138
tp1374
a(I-50
I1139
tp1375
a(I-40
I1140
tp1376
a(I-40
I1141
tp1377
a(I-40
I1142
tp1378
a(I-40
I1143
tp1379
a(I-40
I1144
tp1380
a(I-40
I1145
tp1381
a(I-40
I1146
tp1382
a(I-40
I1147
tp1383
a(I-40
I1148
tp1384
a(I-40
I1149
tp1385
a(I-50
I1150
tp1386
a(I-45
I1151
tp1387
a(I-45
I1152
tp1388
a(I-40
I1153
tp1389
a(I-40
I1154
tp1390
a(I-40
I1155
tp1391
a(I-40
I1156
tp1392
a(I-40
I1157
tp1393
a(I-40
I1158
tp1394
a(I-40
I1159
tp1395
a(I-40
I1160
tp1396
a(I-45
I1161
tp1397
a(I-40
I1162
tp1398
a(I-40
I1163
tp1399
a(I-40
I1164
tp1400
a(I-50
I1165
tp1401
a(I-40
I1166
tp1402
a(I-40
I1167
tp1403
a(I-40
I1168
tp1404
a(I-40
I1169
tp1405
a(I-50
I1170
tp1406
a(I-40
I1171
tp1407
a(I-40
I1172
tp1408
a(I-40
I1173
tp1409
a(I-40
I1174
tp1410
a(I-45
I1175
tp1411
a(I-40
I1176
tp1412
a(I-40
I1177
tp1413
a(I-40
I1178
tp1414
a(I-40
I1179
tp1415
a(I-40
I1180
tp1416
a(I-40
I1181
tp1417
a(I-40
I1182
tp1418
a(I-40
I1183
tp1419
a(I-40
I1184
tp1420
a(I-45
I1185
tp1421
a(I-40
I1186
tp1422
a(I-45
I1187
tp1423
a(I-40
I1188
tp1424
a(I-40
I1189
tp1425
a(I-45
I1190
tp1426
a(I-40
I1191
tp1427
a(I-40
I1192
tp1428
a(I-40
I1193
tp1429
a(I-40
I1194
tp1430
a(I-40
I1195
tp1431
a(I-40
I1196
tp1432
a(I-40
I1197
tp1433
a(I-55
I1198
tp1434
a(I-40
I1199
tp1435
a(I-40
I1200
tp1436
a(I-40
I1201
tp1437
a(I-40
I1202
tp1438
a(I-40
I1203
tp1439
a(I-40
I1204
tp1440
a(I-40
I1205
tp1441
a(I-40
I1206
tp1442
a(I-40
I1207
tp1443
a(I-40
I1208
tp1444
a(I-40
I1209
tp1445
a(I-40
I1210
tp1446
a(I-40
I1211
tp1447
a(I-40
I1212
tp1448
a(I-40
I1213
tp1449
a(I-40
I1214
tp1450
a(I-40
I1215
tp1451
a(I-40
I1216
tp1452
a(I-40
I1217
tp1453
a(I-40
I1218
tp1454
a(I-50
I1219
tp1455
a(I-40
I1220
tp1456
a(I-40
I1221
tp1457
a(I-40
I1222
tp1458
a(I-40
I1223
tp1459
a(I-40
I1224
tp1460
a(I-50
I1225
tp1461
a(I-40
I1226
tp1462
a(I-40
I1227
tp1463
a(I-40
I1228
tp1464
a(I-40
I1229
tp1465
a(I-45
I1230
tp1466
a(I-40
I1231
tp1467
a(I-40
I1232
tp1468
a(I-40
I1233
tp1469
a(I-40
I1234
tp1470
a(I-40
I1235
tp1471
a(I-40
I1236
tp1472
a(I-40
I1237
tp1473
a(I-40
I1238
tp1474
a(I-40
I1239
tp1475
a(I-40
I1240
tp1476
a(I-40
I1241
tp1477
a(I-40
I1242
tp1478
a(I-40
I1243
tp1479
a(I-40
I1244
tp1480
a(I-40
I1245
tp1481
a(I-50
I1246
tp1482
a(I-40
I1247
tp1483
a(I-40
I1248
tp1484
a(I-40
I1249
tp1485
a(I-40
I1250
tp1486
a(I-40
I1251
tp1487
a(I-40
I1252
tp1488
a(I-40
I1253
tp1489
a(I-40
I1254
tp1490
a(I-40
I1255
tp1491
a(I-40
I1256
tp1492
a(I-40
I1257
tp1493
a(I-45
I1258
tp1494
a(I-40
I1259
tp1495
a(I-40
I1260
tp1496
a(I-45
I1261
tp1497
a(I-45
I1262
tp1498
a(I-40
I1263
tp1499
a(I-40
I1264
tp1500
a(I-40
I1265
tp1501
a(I-40
I1266
tp1502
a(I-40
I1267
tp1503
a(I-50
I1268
tp1504
a(I-50
I1269
tp1505
a(I-40
I1270
tp1506
a(I-40
I1271
tp1507
a(I-40
I1272
tp1508
a(I-40
I1273
tp1509
a(I-40
I1274
tp1510
a(I-40
I1275
tp1511
a(I-40
I1276
tp1512
a(I-40
I1277
tp1513
a(I-40
I1278
tp1514
a(I-40
I1279
tp1515
a(I-40
I1280
tp1516
a(I-40
I1281
tp1517
a(I-40
I1282
tp1518
a(I-40
I1283
tp1519
a(I-40
I1284
tp1520
a(I-40
I1285
tp1521
a(I-40
I1286
tp1522
a(I-40
I1287
tp1523
a(I-40
I1288
tp1524
a(I-40
I1289
tp1525
a(I-40
I1290
tp1526
a(I-40
I1291
tp1527
a(I-40
I1292
tp1528
a(I-40
I1293
tp1529
a(I-40
I1294
tp1530
a(I-40
I1295
tp1531
a(I-40
I1296
tp1532
a(I-40
I1297
tp1533
a(I-40
I1298
tp1534
a(I-40
I1299
tp1535
a(I-40
I1300
tp1536
a(I-40
I1301
tp1537
a(I-40
I1302
tp1538
a(I-40
I1303
tp1539
a(I-40
I1304
tp1540
a(I-40
I1305
tp1541
a(I-40
I1306
tp1542
a(I-40
I1307
tp1543
a(I-40
I1308
tp1544
a(I-45
I1309
tp1545
a(I-40
I1310
tp1546
a(I-40
I1311
tp1547
a(I-40
I1312
tp1548
a(I-40
I1313
tp1549
a(I-40
I1314
tp1550
a(I-40
I1315
tp1551
a(I-40
I1316
tp1552
a(I-50
I1317
tp1553
a(I-40
I1318
tp1554
a(I-40
I1319
tp1555
a(I-45
I1320
tp1556
a(I-40
I1321
tp1557
a(I-40
I1322
tp1558
a(I-40
I1323
tp1559
a(I-40
I1324
tp1560
a(I-40
I1325
tp1561
a(I-40
I1326
tp1562
a(I-40
I1327
tp1563
a(I-40
I1328
tp1564
a(I-40
I1329
tp1565
a(I-40
I1330
tp1566
a(I-40
I1331
tp1567
a(I-40
I1332
tp1568
a(I-40
I1333
tp1569
a(I-40
I1334
tp1570
a(I-40
I1335
tp1571
a(I-40
I1336
tp1572
a(I-40
I1337
tp1573
a(I-45
I1338
tp1574
a(I-40
I1339
tp1575
a(I-40
I1340
tp1576
a(I-40
I1341
tp1577
a(I-40
I1342
tp1578
a(I-40
I1343
tp1579
a(I-40
I1344
tp1580
a(I-40
I1345
tp1581
a(I-40
I1346
tp1582
a(I-40
I1347
tp1583
a(I-40
I1348
tp1584
a(I-40
I1349
tp1585
a(I-40
I1350
tp1586
a(I-40
I1351
tp1587
a(I-40
I1352
tp1588
a(I-40
I1353
tp1589
a(I-40
I1354
tp1590
a(I-40
I1355
tp1591
a(I-40
I1356
tp1592
a(I-50
I1357
tp1593
a(I-40
I1358
tp1594
a(I-40
I1359
tp1595
a(I-40
I1360
tp1596
a(I-40
I1361
tp1597
a(I-40
I1362
tp1598
a(I-40
I1363
tp1599
a(I-40
I1364
tp1600
a(I-40
I1365
tp1601
a(I-40
I1366
tp1602
a(I-40
I1367
tp1603
a(I-40
I1368
tp1604
a(I-40
I1369
tp1605
as.