(dp0
S'policy'
p1
(dp2
(I95
I8
tp3
cnumpy.core.multiarray
scalar
p4
(cnumpy
dtype
p5
(S'i8'
p6
I0
I1
tp7
Rp8
(I3
S'<'
p9
NNNI-1
I-1
I0
tp10
bS'\x01\x00\x00\x00\x00\x00\x00\x00'
p11
tp12
Rp13
s(I55
I5
tp14
g4
(g8
S'\x01\x00\x00\x00\x00\x00\x00\x00'
p15
tp16
Rp17
s(I60
I11
tp18
g4
(g8
S'\x01\x00\x00\x00\x00\x00\x00\x00'
p19
tp20
Rp21
s(I95
I11
tp22
g4
(g8
S'\x01\x00\x00\x00\x00\x00\x00\x00'
p23
tp24
Rp25
s(I65
I13
tp26
g4
(g8
S'\x01\x00\x00\x00\x00\x00\x00\x00'
p27
tp28
Rp29
s(I25
I12
tp30
g4
(g8
S'\x01\x00\x00\x00\x00\x00\x00\x00'
p31
tp32
Rp33
s(I70
I10
tp34
g4
(g8
S'\x01\x00\x00\x00\x00\x00\x00\x00'
p35
tp36
Rp37
s(I70
I12
tp38
g4
(g8
S'\x01\x00\x00\x00\x00\x00\x00\x00'
p39
tp40
Rp41
s(I75
I12
tp42
g4
(g8
S'\x01\x00\x00\x00\x00\x00\x00\x00'
p43
tp44
Rp45
s(I90
I7
tp46
g4
(g8
S'\x01\x00\x00\x00\x00\x00\x00\x00'
p47
tp48
Rp49
s(I30
I13
tp50
g4
(g8
S'\x01\x00\x00\x00\x00\x00\x00\x00'
p51
tp52
Rp53
s(I80
I12
tp54
g4
(g8
S'\x01\x00\x00\x00\x00\x00\x00\x00'
p55
tp56
Rp57
s(I60
I18
tp58
g4
(g8
S'\x01\x00\x00\x00\x00\x00\x00\x00'
p59
tp60
Rp61
s(I75
I17
tp62
g4
(g8
S'\x01\x00\x00\x00\x00\x00\x00\x00'
p63
tp64
Rp65
s(I30
I0
tp66
g4
(g8
S'\x01\x00\x00\x00\x00\x00\x00\x00'
p67
tp68
Rp69
s(I35
I0
tp70
g4
(g8
S'\x00\x00\x00\x00\x00\x00\x00\x00'
p71
tp72
Rp73
s(I40
I0
tp74
g4
(g8
S'\x00\x00\x00\x00\x00\x00\x00\x00'
p75
tp76
Rp77
s(I60
I8
tp78
g4
(g8
S'\x00\x00\x00\x00\x00\x00\x00\x00'
p79
tp80
Rp81
s(I95
I4
tp82
g4
(g8
S'\x01\x00\x00\x00\x00\x00\x00\x00'
p83
tp84
Rp85
s(I90
I5
tp86
g4
(g8
S'\x01\x00\x00\x00\x00\x00\x00\x00'
p87
tp88
Rp89
s(I95
I3
tp90
g4
(g8
S'\x01\x00\x00\x00\x00\x00\x00\x00'
p91
tp92
Rp93
s(I90
I0
tp94
g4
(g8
S'\x01\x00\x00\x00\x00\x00\x00\x00'
p95
tp96
Rp97
s(I85
I10
tp98
g4
(g8
S'\x01\x00\x00\x00\x00\x00\x00\x00'
p99
tp100
Rp101
s(I50
I1
tp102
g4
(g8
S'\x00\x00\x00\x00\x00\x00\x00\x00'
p103
tp104
Rp105
s(I80
I6
tp106
g4
(g8
S'\x01\x00\x00\x00\x00\x00\x00\x00'
p107
tp108
Rp109
s(I95
I6
tp110
g4
(g8
S'\x01\x00\x00\x00\x00\x00\x00\x00'
p111
tp112
Rp113
s(I75
I9
tp114
g4
(g8
S'\x01\x00\x00\x00\x00\x00\x00\x00'
p115
tp116
Rp117
s(I50
I12
tp118
g4
(g8
S'\x01\x00\x00\x00\x00\x00\x00\x00'
p119
tp120
Rp121
s(I90
I10
tp122
g4
(g8
S'\x01\x00\x00\x00\x00\x00\x00\x00'
p123
tp124
Rp125
s(I40
I10
tp126
g4
(g8
S'\x01\x00\x00\x00\x00\x00\x00\x00'
p127
tp128
Rp129
s(I85
I9
tp130
g4
(g8
S'\x01\x00\x00\x00\x00\x00\x00\x00'
p131
tp132
Rp133
s(I65
I6
tp134
g4
(g8
S'\x00\x00\x00\x00\x00\x00\x00\x00'
p135
tp136
Rp137
s(I30
I16
tp138
g4
(g8
S'\x01\x00\x00\x00\x00\x00\x00\x00'
p139
tp140
Rp141
s(I60
I13
tp142
g4
(g8
S'\x01\x00\x00\x00\x00\x00\x00\x00'
p143
tp144
Rp145
s(I70
I7
tp146
g4
(g8
S'\x01\x00\x00\x00\x00\x00\x00\x00'
p147
tp148
Rp149
s(I90
I6
tp150
g4
(g8
S'\x01\x00\x00\x00\x00\x00\x00\x00'
p151
tp152
Rp153
s(I85
I7
tp154
g4
(g8
S'\x01\x00\x00\x00\x00\x00\x00\x00'
p155
tp156
Rp157
s(I45
I2
tp158
g4
(g8
S'\x02\x00\x00\x00\x00\x00\x00\x00'
p159
tp160
Rp161
s(I75
I5
tp162
g4
(g8
S'\x01\x00\x00\x00\x00\x00\x00\x00'
p163
tp164
Rp165
s(I80
I3
tp166
g4
(g8
S'\x01\x00\x00\x00\x00\x00\x00\x00'
p167
tp168
Rp169
s(I45
I15
tp170
g4
(g8
S'\x01\x00\x00\x00\x00\x00\x00\x00'
p171
tp172
Rp173
s(I40
I7
tp174
g4
(g8
S'\x01\x00\x00\x00\x00\x00\x00\x00'
p175
tp176
Rp177
s(I55
I1
tp178
g4
(g8
S'\x01\x00\x00\x00\x00\x00\x00\x00'
p179
tp180
Rp181
s(I85
I12
tp182
g4
(g8
S'\x01\x00\x00\x00\x00\x00\x00\x00'
p183
tp184
Rp185
s(I65
I1
tp186
g4
(g8
S'\x00\x00\x00\x00\x00\x00\x00\x00'
p187
tp188
Rp189
s(I25
I16
tp190
g4
(g8
S'\x01\x00\x00\x00\x00\x00\x00\x00'
p191
tp192
Rp193
s(I15
I13
tp194
g4
(g8
S'\x01\x00\x00\x00\x00\x00\x00\x00'
p195
tp196
Rp197
s(I85
I11
tp198
g4
(g8
S'\x01\x00\x00\x00\x00\x00\x00\x00'
p199
tp200
Rp201
s(I70
I0
tp202
g4
(g8
S'\x01\x00\x00\x00\x00\x00\x00\x00'
p203
tp204
Rp205
s(I75
I0
tp206
g4
(g8
S'\x01\x00\x00\x00\x00\x00\x00\x00'
p207
tp208
Rp209
s(I80
I0
tp210
g4
(g8
S'\x01\x00\x00\x00\x00\x00\x00\x00'
p211
tp212
Rp213
s(I50
I18
tp214
g4
(g8
S'\x01\x00\x00\x00\x00\x00\x00\x00'
p215
tp216
Rp217
s(I85
I18
tp218
g4
(g8
S'\x01\x00\x00\x00\x00\x00\x00\x00'
p219
tp220
Rp221
s(I90
I13
tp222
g4
(g8
S'\x01\x00\x00\x00\x00\x00\x00\x00'
p223
tp224
Rp225
s(I90
I18
tp226
g4
(g8
S'\x01\x00\x00\x00\x00\x00\x00\x00'
p227
tp228
Rp229
s(I85
I15
tp230
g4
(g8
S'\x01\x00\x00\x00\x00\x00\x00\x00'
p231
tp232
Rp233
s(I65
I12
tp234
g4
(g8
S'\x01\x00\x00\x00\x00\x00\x00\x00'
p235
tp236
Rp237
s(I90
I4
tp238
g4
(g8
S'\x01\x00\x00\x00\x00\x00\x00\x00'
p239
tp240
Rp241
s(I85
I0
tp242
g4
(g8
S'\x01\x00\x00\x00\x00\x00\x00\x00'
p243
tp244
Rp245
s(I15
I0
tp246
g4
(g8
S'\x00\x00\x00\x00\x00\x00\x00\x00'
p247
tp248
Rp249
s(I20
I0
tp250
g4
(g8
S'\x01\x00\x00\x00\x00\x00\x00\x00'
p251
tp252
Rp253
s(I25
I0
tp254
g4
(g8
S'\x01\x00\x00\x00\x00\x00\x00\x00'
p255
tp256
Rp257
s(I55
I18
tp258
g4
(g8
S'\x01\x00\x00\x00\x00\x00\x00\x00'
p259
tp260
Rp261
s(I45
I8
tp262
g4
(g8
S'\x01\x00\x00\x00\x00\x00\x00\x00'
p263
tp264
Rp265
s(I50
I8
tp266
g4
(g8
S'\x01\x00\x00\x00\x00\x00\x00\x00'
p267
tp268
Rp269
s(I80
I13
tp270
g4
(g8
S'\x01\x00\x00\x00\x00\x00\x00\x00'
p271
tp272
Rp273
s(I35
I14
tp274
g4
(g8
S'\x01\x00\x00\x00\x00\x00\x00\x00'
p275
tp276
Rp277
s(I95
I2
tp278
g4
(g8
S'\x01\x00\x00\x00\x00\x00\x00\x00'
p279
tp280
Rp281
s(I75
I16
tp282
g4
(g8
S'\x01\x00\x00\x00\x00\x00\x00\x00'
p283
tp284
Rp285
s(I80
I16
tp286
g4
(g8
S'\x01\x00\x00\x00\x00\x00\x00\x00'
p287
tp288
Rp289
s(I90
I17
tp290
g4
(g8
S'\x01\x00\x00\x00\x00\x00\x00\x00'
p291
tp292
Rp293
s(I85
I2
tp294
g4
(g8
S'\x01\x00\x00\x00\x00\x00\x00\x00'
p295
tp296
Rp297
s(I65
I15
tp298
g4
(g8
S'\x01\x00\x00\x00\x00\x00\x00\x00'
p299
tp300
Rp301
s(I20
I10
tp302
g4
(g8
S'\x00\x00\x00\x00\x00\x00\x00\x00'
p303
tp304
Rp305
s(I65
I10
tp306
g4
(g8
S'\x01\x00\x00\x00\x00\x00\x00\x00'
p307
tp308
Rp309
s(I20
I5
tp310
g4
(g8
S'\x01\x00\x00\x00\x00\x00\x00\x00'
p311
tp312
Rp313
s(I25
I3
tp314
g4
(g8
S'\x01\x00\x00\x00\x00\x00\x00\x00'
p315
tp316
Rp317
s(I80
I7
tp318
g4
(g8
S'\x02\x00\x00\x00\x00\x00\x00\x00'
p319
tp320
Rp321
s(I45
I11
tp322
g4
(g8
S'\x01\x00\x00\x00\x00\x00\x00\x00'
p323
tp324
Rp325
s(I75
I10
tp326
g4
(g8
S'\x01\x00\x00\x00\x00\x00\x00\x00'
p327
tp328
Rp329
s(I55
I16
tp330
g4
(g8
S'\x01\x00\x00\x00\x00\x00\x00\x00'
p331
tp332
Rp333
s(I80
I10
tp334
g4
(g8
S'\x01\x00\x00\x00\x00\x00\x00\x00'
p335
tp336
Rp337
s(I95
I18
tp338
g4
(g8
S'\x01\x00\x00\x00\x00\x00\x00\x00'
p339
tp340
Rp341
s(I10
I10
tp342
g4
(g8
S'\x01\x00\x00\x00\x00\x00\x00\x00'
p343
tp344
Rp345
s(I95
I0
tp346
g4
(g8
S'\x01\x00\x00\x00\x00\x00\x00\x00'
p347
tp348
Rp349
s(I65
I16
tp350
g4
(g8
S'\x00\x00\x00\x00\x00\x00\x00\x00'
p351
tp352
Rp353
s(I95
I14
tp354
g4
(g8
S'\x01\x00\x00\x00\x00\x00\x00\x00'
p355
tp356
Rp357
s(I60
I3
tp358
g4
(g8
S'\x01\x00\x00\x00\x00\x00\x00\x00'
p359
tp360
Rp361
s(I90
I12
tp362
g4
(g8
S'\x01\x00\x00\x00\x00\x00\x00\x00'
p363
tp364
Rp365
s(I90
I8
tp366
g4
(g8
S'\x01\x00\x00\x00\x00\x00\x00\x00'
p367
tp368
Rp369
s(I55
I14
tp370
g4
(g8
S'\x01\x00\x00\x00\x00\x00\x00\x00'
p371
tp372
Rp373
s(I95
I5
tp374
g4
(g8
S'\x01\x00\x00\x00\x00\x00\x00\x00'
p375
tp376
Rp377
s(I85
I5
tp378
g4
(g8
S'\x01\x00\x00\x00\x00\x00\x00\x00'
p379
tp380
Rp381
s(I40
I17
tp382
g4
(g8
S'\x01\x00\x00\x00\x00\x00\x00\x00'
p383
tp384
Rp385
s(I20
I15
tp386
g4
(g8
S'\x01\x00\x00\x00\x00\x00\x00\x00'
p387
tp388
Rp389
s(I75
I13
tp390
g4
(g8
S'\x01\x00\x00\x00\x00\x00\x00\x00'
p391
tp392
Rp393
s(I70
I1
tp394
g4
(g8
S'\x00\x00\x00\x00\x00\x00\x00\x00'
p395
tp396
Rp397
s(I70
I4
tp398
g4
(g8
S'\x01\x00\x00\x00\x00\x00\x00\x00'
p399
tp400
Rp401
s(I50
I3
tp402
g4
(g8
S'\x02\x00\x00\x00\x00\x00\x00\x00'
p403
tp404
Rp405
s(I70
I11
tp406
g4
(g8
S'\x02\x00\x00\x00\x00\x00\x00\x00'
p407
tp408
Rp409
s(I50
I14
tp410
g4
(g8
S'\x01\x00\x00\x00\x00\x00\x00\x00'
p411
tp412
Rp413
s(I95
I17
tp414
g4
(g8
S'\x01\x00\x00\x00\x00\x00\x00\x00'
p415
tp416
Rp417
s(I35
I8
tp418
g4
(g8
S'\x01\x00\x00\x00\x00\x00\x00\x00'
p419
tp420
Rp421
s(I55
I0
tp422
g4
(g8
S'\x01\x00\x00\x00\x00\x00\x00\x00'
p423
tp424
Rp425
s(I95
I10
tp426
g4
(g8
S'\x01\x00\x00\x00\x00\x00\x00\x00'
p427
tp428
Rp429
s(I60
I0
tp430
g4
(g8
S'\x01\x00\x00\x00\x00\x00\x00\x00'
p431
tp432
Rp433
s(I65
I0
tp434
g4
(g8
S'\x01\x00\x00\x00\x00\x00\x00\x00'
p435
tp436
Rp437
s(I85
I3
tp438
g4
(g8
S'\x00\x00\x00\x00\x00\x00\x00\x00'
p439
tp440
Rp441
s(I95
I1
tp442
g4
(g8
S'\x01\x00\x00\x00\x00\x00\x00\x00'
p443
tp444
Rp445
s(I45
I4
tp446
g4
(g8
S'\x02\x00\x00\x00\x00\x00\x00\x00'
p447
tp448
Rp449
s(I75
I3
tp450
g4
(g8
S'\x00\x00\x00\x00\x00\x00\x00\x00'
p451
tp452
Rp453
s(I80
I1
tp454
g4
(g8
S'\x01\x00\x00\x00\x00\x00\x00\x00'
p455
tp456
Rp457
s(I45
I17
tp458
g4
(g8
S'\x01\x00\x00\x00\x00\x00\x00\x00'
p459
tp460
Rp461
s(I5
I0
tp462
g4
(g8
S'\x01\x00\x00\x00\x00\x00\x00\x00'
p463
tp464
Rp465
s(I10
I0
tp466
g4
(g8
S'\x01\x00\x00\x00\x00\x00\x00\x00'
p467
tp468
Rp469
s(I70
I14
tp470
g4
(g8
S'\x01\x00\x00\x00\x00\x00\x00\x00'
p471
tp472
Rp473
s(I40
I5
tp474
g4
(g8
S'\x00\x00\x00\x00\x00\x00\x00\x00'
p475
tp476
Rp477
s(I55
I7
tp478
g4
(g8
S'\x01\x00\x00\x00\x00\x00\x00\x00'
p479
tp480
Rp481
s(I60
I5
tp482
g4
(g8
S'\x01\x00\x00\x00\x00\x00\x00\x00'
p483
tp484
Rp485
s(I65
I3
tp486
g4
(g8
S'\x01\x00\x00\x00\x00\x00\x00\x00'
p487
tp488
Rp489
s(I95
I13
tp490
g4
(g8
S'\x01\x00\x00\x00\x00\x00\x00\x00'
p491
tp492
Rp493
s(I95
I15
tp494
g4
(g8
S'\x01\x00\x00\x00\x00\x00\x00\x00'
p495
tp496
Rp497
s(I70
I2
tp498
g4
(g8
S'\x01\x00\x00\x00\x00\x00\x00\x00'
p499
tp500
Rp501
s(I75
I14
tp502
g4
(g8
S'\x01\x00\x00\x00\x00\x00\x00\x00'
p503
tp504
Rp505
s(I85
I17
tp506
g4
(g8
S'\x01\x00\x00\x00\x00\x00\x00\x00'
p507
tp508
Rp509
s(I70
I17
tp510
g4
(g8
S'\x01\x00\x00\x00\x00\x00\x00\x00'
p511
tp512
Rp513
s(I40
I15
tp514
g4
(g8
S'\x01\x00\x00\x00\x00\x00\x00\x00'
p515
tp516
Rp517
s(I30
I6
tp518
g4
(g8
S'\x01\x00\x00\x00\x00\x00\x00\x00'
p519
tp520
Rp521
s(I80
I17
tp522
g4
(g8
S'\x01\x00\x00\x00\x00\x00\x00\x00'
p523
tp524
Rp525
s(I35
I2
tp526
g4
(g8
S'\x00\x00\x00\x00\x00\x00\x00\x00'
p527
tp528
Rp529
s(I40
I2
tp530
g4
(g8
S'\x00\x00\x00\x00\x00\x00\x00\x00'
p531
tp532
Rp533
s(I55
I10
tp534
g4
(g8
S'\x01\x00\x00\x00\x00\x00\x00\x00'
p535
tp536
Rp537
s(I60
I10
tp538
g4
(g8
S'\x01\x00\x00\x00\x00\x00\x00\x00'
p539
tp540
Rp541
s(I60
I16
tp542
g4
(g8
S'\x01\x00\x00\x00\x00\x00\x00\x00'
p543
tp544
Rp545
s(I90
I3
tp546
g4
(g8
S'\x01\x00\x00\x00\x00\x00\x00\x00'
p547
tp548
Rp549
s(I85
I4
tp550
g4
(g8
S'\x00\x00\x00\x00\x00\x00\x00\x00'
p551
tp552
Rp553
s(I85
I8
tp554
g4
(g8
S'\x01\x00\x00\x00\x00\x00\x00\x00'
p555
tp556
Rp557
s(I15
I6
tp558
g4
(g8
S'\x01\x00\x00\x00\x00\x00\x00\x00'
p559
tp560
Rp561
s(I75
I6
tp562
g4
(g8
S'\x01\x00\x00\x00\x00\x00\x00\x00'
p563
tp564
Rp565
s(I70
I15
tp566
g4
(g8
S'\x01\x00\x00\x00\x00\x00\x00\x00'
p567
tp568
Rp569
s(I50
I10
tp570
g4
(g8
S'\x01\x00\x00\x00\x00\x00\x00\x00'
p571
tp572
Rp573
s(I85
I14
tp574
g4
(g8
S'\x01\x00\x00\x00\x00\x00\x00\x00'
p575
tp576
Rp577
s(I80
I11
tp578
g4
(g8
S'\x01\x00\x00\x00\x00\x00\x00\x00'
p579
tp580
Rp581
s(I70
I18
tp582
g4
(g8
S'\x01\x00\x00\x00\x00\x00\x00\x00'
p583
tp584
Rp585
s(I40
I12
tp586
g4
(g8
S'\x01\x00\x00\x00\x00\x00\x00\x00'
p587
tp588
Rp589
s(I30
I3
tp590
g4
(g8
S'\x00\x00\x00\x00\x00\x00\x00\x00'
p591
tp592
Rp593
s(I65
I4
tp594
g4
(g8
S'\x01\x00\x00\x00\x00\x00\x00\x00'
p595
tp596
Rp597
s(I55
I9
tp598
g4
(g8
S'\x01\x00\x00\x00\x00\x00\x00\x00'
p599
tp600
Rp601
s(I60
I15
tp602
g4
(g8
S'\x01\x00\x00\x00\x00\x00\x00\x00'
p603
tp604
Rp605
s(I90
I14
tp606
g4
(g8
S'\x01\x00\x00\x00\x00\x00\x00\x00'
p607
tp608
Rp609
s(I65
I9
tp610
g4
(g8
S'\x01\x00\x00\x00\x00\x00\x00\x00'
p611
tp612
Rp613
s(I25
I8
tp614
g4
(g8
S'\x01\x00\x00\x00\x00\x00\x00\x00'
p615
tp616
Rp617
s(I45
I0
tp618
g4
(g8
S'\x01\x00\x00\x00\x00\x00\x00\x00'
p619
tp620
Rp621
s(I50
I0
tp622
g4
(g8
S'\x00\x00\x00\x00\x00\x00\x00\x00'
p623
tp624
Rp625
s(I80
I5
tp626
g4
(g8
S'\x00\x00\x00\x00\x00\x00\x00\x00'
p627
tp628
Rp629
s(I45
I13
tp630
g4
(g8
S'\x01\x00\x00\x00\x00\x00\x00\x00'
p631
tp632
Rp633
s(I75
I8
tp634
g4
(g8
S'\x01\x00\x00\x00\x00\x00\x00\x00'
p635
tp636
Rp637
s(I80
I8
tp638
g4
(g8
S'\x01\x00\x00\x00\x00\x00\x00\x00'
p639
tp640
Rp641
s(I95
I16
tp642
g4
(g8
S'\x01\x00\x00\x00\x00\x00\x00\x00'
p643
tp644
Rp645
s(I35
I11
tp646
g4
(g8
S'\x01\x00\x00\x00\x00\x00\x00\x00'
p647
tp648
Rp649
s(I65
I18
tp650
g4
(g8
S'\x01\x00\x00\x00\x00\x00\x00\x00'
p651
tp652
Rp653
s(I55
I3
tp654
g4
(g8
S'\x02\x00\x00\x00\x00\x00\x00\x00'
p655
tp656
Rp657
s(I75
I1
tp658
g4
(g8
S'\x01\x00\x00\x00\x00\x00\x00\x00'
p659
tp660
Rp661
s(I60
I1
tp662
g4
(g8
S'\x02\x00\x00\x00\x00\x00\x00\x00'
p663
tp664
Rp665
s(I70
I5
tp666
g4
(g8
S'\x02\x00\x00\x00\x00\x00\x00\x00'
p667
tp668
Rp669
s(I65
I7
tp670
g4
(g8
S'\x01\x00\x00\x00\x00\x00\x00\x00'
p671
tp672
Rp673
s(I55
I12
tp674
g4
(g8
S'\x01\x00\x00\x00\x00\x00\x00\x00'
p675
tp676
Rp677
s(I35
I17
tp678
g4
(g8
S'\x00\x00\x00\x00\x00\x00\x00\x00'
p679
tp680
Rp681
s(I90
I2
tp682
g4
(g8
S'\x00\x00\x00\x00\x00\x00\x00\x00'
p683
tp684
Rp685
s(I0
I0
tp686
g4
(g8
S'\x00\x00\x00\x00\x00\x00\x00\x00'
p687
tp688
Rp689
s(I95
I9
tp690
g4
(g8
S'\x02\x00\x00\x00\x00\x00\x00\x00'
p691
tp692
Rp693
s(I75
I2
tp694
g4
(g8
S'\x01\x00\x00\x00\x00\x00\x00\x00'
p695
tp696
Rp697
s(I80
I2
tp698
g4
(g8
S'\x02\x00\x00\x00\x00\x00\x00\x00'
p699
tp700
Rp701
s(I50
I16
tp702
g4
(g8
S'\x01\x00\x00\x00\x00\x00\x00\x00'
p703
tp704
Rp705
s(I30
I10
tp706
g4
(g8
S'\x01\x00\x00\x00\x00\x00\x00\x00'
p707
tp708
Rp709
s(I95
I12
tp710
g4
(g8
S'\x01\x00\x00\x00\x00\x00\x00\x00'
p711
tp712
Rp713
s(I85
I16
tp714
g4
(g8
S'\x01\x00\x00\x00\x00\x00\x00\x00'
p715
tp716
Rp717
s(I90
I16
tp718
g4
(g8
S'\x01\x00\x00\x00\x00\x00\x00\x00'
p719
tp720
Rp721
s(I85
I1
tp722
g4
(g8
S'\x02\x00\x00\x00\x00\x00\x00\x00'
p723
tp724
Rp725
s(I60
I6
tp726
g4
(g8
S'\x01\x00\x00\x00\x00\x00\x00\x00'
p727
tp728
Rp729
s(I70
I8
tp730
g4
(g8
S'\x00\x00\x00\x00\x00\x00\x00\x00'
p731
tp732
Rp733
s(I90
I15
tp734
g4
(g8
S'\x01\x00\x00\x00\x00\x00\x00\x00'
p735
tp736
Rp737
s(I95
I7
tp738
g4
(g8
S'\x01\x00\x00\x00\x00\x00\x00\x00'
p739
tp740
Rp741
s(I90
I1
tp742
g4
(g8
S'\x01\x00\x00\x00\x00\x00\x00\x00'
p743
tp744
Rp745
s(I100
I0
tp746
g4
(g8
S'\x01\x00\x00\x00\x00\x00\x00\x00'
p747
tp748
Rp749
s(I45
I6
tp750
g4
(g8
S'\x01\x00\x00\x00\x00\x00\x00\x00'
p751
tp752
Rp753
s(I50
I6
tp754
g4
(g8
S'\x01\x00\x00\x00\x00\x00\x00\x00'
p755
tp756
Rp757
s(I80
I15
tp758
g4
(g8
S'\x01\x00\x00\x00\x00\x00\x00\x00'
p759
tp760
Rp761
s(I90
I11
tp762
g4
(g8
S'\x02\x00\x00\x00\x00\x00\x00\x00'
p763
tp764
Rp765
s(I75
I18
tp766
g4
(g8
S'\x01\x00\x00\x00\x00\x00\x00\x00'
p767
tp768
Rp769
s(I80
I18
tp770
g4
(g8
S'\x01\x00\x00\x00\x00\x00\x00\x00'
p771
tp772
Rp773
s(I35
I5
tp774
g4
(g8
S'\x01\x00\x00\x00\x00\x00\x00\x00'
p775
tp776
Rp777
ssS'rewards'
p778
(lp779
(I-515
I0
tp780
a(I-455
I1
tp781
a(I-505
I2
tp782
a(I-420
I3
tp783
a(I-505
I4
tp784
a(I-475
I5
tp785
a(I-415
I6
tp786
a(I-500
I7
tp787
a(I-520
I8
tp788
a(I-490
I9
tp789
a(I-785
I10
tp790
a(I-540
I11
tp791
a(I-555
I12
tp792
a(I-530
I13
tp793
a(I-440
I14
tp794
a(I-450
I15
tp795
a(I-510
I16
tp796
a(I-425
I17
tp797
a(I-440
I18
tp798
a(I-435
I19
tp799
a(I-450
I20
tp800
a(I-490
I21
tp801
a(I-500
I22
tp802
a(I-490
I23
tp803
a(I-455
I24
tp804
a(I-425
I25
tp805
a(I-410
I26
tp806
a(I-400
I27
tp807
a(I-410
I28
tp808
a(I-435
I29
tp809
a(I-460
I30
tp810
a(I-440
I31
tp811
a(I-385
I32
tp812
a(I-485
I33
tp813
a(I-365
I34
tp814
a(I-445
I35
tp815
a(I-425
I36
tp816
a(I-395
I37
tp817
a(I-440
I38
tp818
a(I-425
I39
tp819
a(I-725
I40
tp820
a(I-415
I41
tp821
a(I-420
I42
tp822
a(I-365
I43
tp823
a(I-425
I44
tp824
a(I-435
I45
tp825
a(I-430
I46
tp826
a(I-585
I47
tp827
a(I-405
I48
tp828
a(I-340
I49
tp829
a(I-390
I50
tp830
a(I-405
I51
tp831
a(I-360
I52
tp832
a(I-335
I53
tp833
a(I-370
I54
tp834
a(I-370
I55
tp835
a(I-360
I56
tp836
a(I-430
I57
tp837
a(I-420
I58
tp838
a(I-370
I59
tp839
a(I-460
I60
tp840
a(I-260
I61
tp841
a(I-395
I62
tp842
a(I-580
I63
tp843
a(I-375
I64
tp844
a(I-400
I65
tp845
a(I-410
I66
tp846
a(I-360
I67
tp847
a(I-370
I68
tp848
a(I-300
I69
tp849
a(I-275
I70
tp850
a(I-360
I71
tp851
a(I-385
I72
tp852
a(I-360
I73
tp853
a(I-330
I74
tp854
a(I-390
I75
tp855
a(I-415
I76
tp856
a(I-285
I77
tp857
a(I-375
I78
tp858
a(I-385
I79
tp859
a(I-335
I80
tp860
a(I-350
I81
tp861
a(I-395
I82
tp862
a(I-320
I83
tp863
a(I-370
I84
tp864
a(I-320
I85
tp865
a(I-320
I86
tp866
a(I-320
I87
tp867
a(I-370
I88
tp868
a(I-410
I89
tp869
a(I-330
I90
tp870
a(I-250
I91
tp871
a(I-285
I92
tp872
a(I-270
I93
tp873
a(I-390
I94
tp874
a(I-395
I95
tp875
a(I-325
I96
tp876
a(I-245
I97
tp877
a(I-270
I98
tp878
a(I-305
I99
tp879
a(I-650
I100
tp880
a(I-330
I101
tp881
a(I-325
I102
tp882
a(I-255
I103
tp883
a(I-635
I104
tp884
a(I-260
I105
tp885
a(I-710
I106
tp886
a(I-575
I107
tp887
a(I-320
I108
tp888
a(I-315
I109
tp889
a(I-250
I110
tp890
a(I-300
I111
tp891
a(I-290
I112
tp892
a(I-295
I113
tp893
a(I-320
I114
tp894
a(I-320
I115
tp895
a(I-545
I116
tp896
a(I-325
I117
tp897
a(I-270
I118
tp898
a(I-645
I119
tp899
a(I-560
I120
tp900
a(I-660
I121
tp901
a(I-250
I122
tp902
a(I-270
I123
tp903
a(I-315
I124
tp904
a(I-325
I125
tp905
a(I-265
I126
tp906
a(I-240
I127
tp907
a(I-280
I128
tp908
a(I-270
I129
tp909
a(I-295
I130
tp910
a(I-245
I131
tp911
a(I-315
I132
tp912
a(I-260
I133
tp913
a(I-305
I134
tp914
a(I-280
I135
tp915
a(I-230
I136
tp916
a(I-255
I137
tp917
a(I-585
I138
tp918
a(I-560
I139
tp919
a(I-245
I140
tp920
a(I-250
I141
tp921
a(I-345
I142
tp922
a(I-280
I143
tp923
a(I-240
I144
tp924
a(I-240
I145
tp925
a(I-260
I146
tp926
a(I-220
I147
tp927
a(I-255
I148
tp928
a(I-250
I149
tp929
a(I-680
I150
tp930
a(I-230
I151
tp931
a(I-245
I152
tp932
a(I-190
I153
tp933
a(I-260
I154
tp934
a(I-245
I155
tp935
a(I-270
I156
tp936
a(I-725
I157
tp937
a(I-235
I158
tp938
a(I-220
I159
tp939
a(I-235
I160
tp940
a(I-230
I161
tp941
a(I-230
I162
tp942
a(I-235
I163
tp943
a(I-210
I164
tp944
a(I-275
I165
tp945
a(I-245
I166
tp946
a(I-560
I167
tp947
a(I-595
I168
tp948
a(I-200
I169
tp949
a(I-255
I170
tp950
a(I-215
I171
tp951
a(I-220
I172
tp952
a(I-195
I173
tp953
a(I-225
I174
tp954
a(I-250
I175
tp955
a(I-195
I176
tp956
a(I-220
I177
tp957
a(I-510
I178
tp958
a(I-235
I179
tp959
a(I-255
I180
tp960
a(I-185
I181
tp961
a(I-220
I182
tp962
a(I-635
I183
tp963
a(I-600
I184
tp964
a(I-280
I185
tp965
a(I-505
I186
tp966
a(I-225
I187
tp967
a(I-595
I188
tp968
a(I-195
I189
tp969
a(I-515
I190
tp970
a(I-200
I191
tp971
a(I-235
I192
tp972
a(I-170
I193
tp973
a(I-205
I194
tp974
a(I-165
I195
tp975
a(I-210
I196
tp976
a(I-190
I197
tp977
a(I-190
I198
tp978
a(I-185
I199
tp979
a(I-180
I200
tp980
a(I-240
I201
tp981
a(I-190
I202
tp982
a(I-200
I203
tp983
a(I-520
I204
tp984
a(I-195
I205
tp985
a(I-145
I206
tp986
a(I-185
I207
tp987
a(I-525
I208
tp988
a(I-260
I209
tp989
a(I-185
I210
tp990
a(I-220
I211
tp991
a(I-240
I212
tp992
a(I-170
I213
tp993
a(I-170
I214
tp994
a(I-510
I215
tp995
a(I-195
I216
tp996
a(I-210
I217
tp997
a(I-125
I218
tp998
a(I-585
I219
tp999
a(I-185
I220
tp1000
a(I-225
I221
tp1001
a(I-195
I222
tp1002
a(I-185
I223
tp1003
a(I-205
I224
tp1004
a(I-145
I225
tp1005
a(I-190
I226
tp1006
a(I-145
I227
tp1007
a(I-180
I228
tp1008
a(I-565
I229
tp1009
a(I-170
I230
tp1010
a(I-185
I231
tp1011
a(I-180
I232
tp1012
a(I-140
I233
tp1013
a(I-570
I234
tp1014
a(I-145
I235
tp1015
a(I-190
I236
tp1016
a(I-580
I237
tp1017
a(I-200
I238
tp1018
a(I-185
I239
tp1019
a(I-635
I240
tp1020
a(I-155
I241
tp1021
a(I-135
I242
tp1022
a(I-185
I243
tp1023
a(I-145
I244
tp1024
a(I-625
I245
tp1025
a(I-125
I246
tp1026
a(I-140
I247
tp1027
a(I-200
I248
tp1028
a(I-130
I249
tp1029
a(I-170
I250
tp1030
a(I-645
I251
tp1031
a(I-110
I252
tp1032
a(I-225
I253
tp1033
a(I-585
I254
tp1034
a(I-195
I255
tp1035
a(I-555
I256
tp1036
a(I-110
I257
tp1037
a(I-540
I258
tp1038
a(I-170
I259
tp1039
a(I-555
I260
tp1040
a(I-200
I261
tp1041
a(I-180
I262
tp1042
a(I-140
I263
tp1043
a(I-155
I264
tp1044
a(I-120
I265
tp1045
a(I-175
I266
tp1046
a(I-145
I267
tp1047
a(I-150
I268
tp1048
a(I-180
I269
tp1049
a(I-200
I270
tp1050
a(I-130
I271
tp1051
a(I-160
I272
tp1052
a(I-145
I273
tp1053
a(I-155
I274
tp1054
a(I-95
I275
tp1055
a(I-135
I276
tp1056
a(I-155
I277
tp1057
a(I-170
I278
tp1058
a(I-135
I279
tp1059
a(I-170
I280
tp1060
a(I-140
I281
tp1061
a(I-120
I282
tp1062
a(I-155
I283
tp1063
a(I-155
I284
tp1064
a(I-140
I285
tp1065
a(I-170
I286
tp1066
a(I-150
I287
tp1067
a(I-175
I288
tp1068
a(I-135
I289
tp1069
a(I-145
I290
tp1070
a(I-145
I291
tp1071
a(I-110
I292
tp1072
a(I-115
I293
tp1073
a(I-115
I294
tp1074
a(I-150
I295
tp1075
a(I-120
I296
tp1076
a(I-105
I297
tp1077
a(I-135
I298
tp1078
a(I-150
I299
tp1079
a(I-145
I300
tp1080
a(I-145
I301
tp1081
a(I-185
I302
tp1082
a(I-110
I303
tp1083
a(I-115
I304
tp1084
a(I-130
I305
tp1085
a(I-155
I306
tp1086
a(I-150
I307
tp1087
a(I-150
I308
tp1088
a(I-130
I309
tp1089
a(I-125
I310
tp1090
a(I-115
I311
tp1091
a(I-155
I312
tp1092
a(I-120
I313
tp1093
a(I-140
I314
tp1094
a(I-610
I315
tp1095
a(I-170
I316
tp1096
a(I-145
I317
tp1097
a(I-130
I318
tp1098
a(I-135
I319
tp1099
a(I-165
I320
tp1100
a(I-150
I321
tp1101
a(I-155
I322
tp1102
a(I-125
I323
tp1103
a(I-145
I324
tp1104
a(I-185
I325
tp1105
a(I-115
I326
tp1106
a(I-90
I327
tp1107
a(I-100
I328
tp1108
a(I-120
I329
tp1109
a(I-110
I330
tp1110
a(I-95
I331
tp1111
a(I-110
I332
tp1112
a(I-575
I333
tp1113
a(I-115
I334
tp1114
a(I-85
I335
tp1115
a(I-125
I336
tp1116
a(I-150
I337
tp1117
a(I-125
I338
tp1118
a(I-130
I339
tp1119
a(I-130
I340
tp1120
a(I-130
I341
tp1121
a(I-110
I342
tp1122
a(I-135
I343
tp1123
a(I-95
I344
tp1124
a(I-120
I345
tp1125
a(I-110
I346
tp1126
a(I-135
I347
tp1127
a(I-125
I348
tp1128
a(I-135
I349
tp1129
a(I-100
I350
tp1130
a(I-115
I351
tp1131
a(I-85
I352
tp1132
a(I-110
I353
tp1133
a(I-120
I354
tp1134
a(I-110
I355
tp1135
a(I-155
I356
tp1136
a(I-135
I357
tp1137
a(I-165
I358
tp1138
a(I-130
I359
tp1139
a(I-145
I360
tp1140
a(I-140
I361
tp1141
a(I-135
I362
tp1142
a(I-120
I363
tp1143
a(I-130
I364
tp1144
a(I-145
I365
tp1145
a(I-150
I366
tp1146
a(I-120
I367
tp1147
a(I-115
I368
tp1148
a(I-85
I369
tp1149
a(I-125
I370
tp1150
a(I-120
I371
tp1151
a(I-150
I372
tp1152
a(I-120
I373
tp1153
a(I-130
I374
tp1154
a(I-80
I375
tp1155
a(I-140
I376
tp1156
a(I-85
I377
tp1157
a(I-95
I378
tp1158
a(I-110
I379
tp1159
a(I-105
I380
tp1160
a(I-100
I381
tp1161
a(I-100
I382
tp1162
a(I-80
I383
tp1163
a(I-95
I384
tp1164
a(I-100
I385
tp1165
a(I-120
I386
tp1166
a(I-100
I387
tp1167
a(I-140
I388
tp1168
a(I-110
I389
tp1169
a(I-90
I390
tp1170
a(I-110
I391
tp1171
a(I-95
I392
tp1172
a(I-150
I393
tp1173
a(I-85
I394
tp1174
a(I-100
I395
tp1175
a(I-85
I396
tp1176
a(I-90
I397
tp1177
a(I-90
I398
tp1178
a(I-105
I399
tp1179
a(I-125
I400
tp1180
a(I-130
I401
tp1181
a(I-120
I402
tp1182
a(I-95
I403
tp1183
a(I-75
I404
tp1184
a(I-115
I405
tp1185
a(I-90
I406
tp1186
a(I-105
I407
tp1187
a(I-90
I408
tp1188
a(I-115
I409
tp1189
a(I-125
I410
tp1190
a(I-95
I411
tp1191
a(I-85
I412
tp1192
a(I-85
I413
tp1193
a(I-105
I414
tp1194
a(I-80
I415
tp1195
a(I-75
I416
tp1196
a(I-75
I417
tp1197
a(I-80
I418
tp1198
a(I-90
I419
tp1199
a(I-100
I420
tp1200
a(I-110
I421
tp1201
a(I-105
I422
tp1202
a(I-115
I423
tp1203
a(I-105
I424
tp1204
a(I-110
I425
tp1205
a(I-80
I426
tp1206
a(I-105
I427
tp1207
a(I-125
I428
tp1208
a(I-90
I429
tp1209
a(I-85
I430
tp1210
a(I-90
I431
tp1211
a(I-85
I432
tp1212
a(I-120
I433
tp1213
a(I-105
I434
tp1214
a(I-570
I435
tp1215
a(I-125
I436
tp1216
a(I-105
I437
tp1217
a(I-110
I438
tp1218
a(I-85
I439
tp1219
a(I-85
I440
tp1220
a(I-80
I441
tp1221
a(I-85
I442
tp1222
a(I-125
I443
tp1223
a(I-80
I444
tp1224
a(I-80
I445
tp1225
a(I-75
I446
tp1226
a(I-120
I447
tp1227
a(I-70
I448
tp1228
a(I-105
I449
tp1229
a(I-100
I450
tp1230
a(I-110
I451
tp1231
a(I-85
I452
tp1232
a(I-130
I453
tp1233
a(I-75
I454
tp1234
a(I-80
I455
tp1235
a(I-85
I456
tp1236
a(I-85
I457
tp1237
a(I-130
I458
tp1238
a(I-110
I459
tp1239
a(I-75
I460
tp1240
a(I-85
I461
tp1241
a(I-100
I462
tp1242
a(I-75
I463
tp1243
a(I-90
I464
tp1244
a(I-90
I465
tp1245
a(I-105
I466
tp1246
a(I-70
I467
tp1247
a(I-100
I468
tp1248
a(I-130
I469
tp1249
a(I-115
I470
tp1250
a(I-105
I471
tp1251
a(I-540
I472
tp1252
a(I-75
I473
tp1253
a(I-75
I474
tp1254
a(I-80
I475
tp1255
a(I-90
I476
tp1256
a(I-90
I477
tp1257
a(I-95
I478
tp1258
a(I-90
I479
tp1259
a(I-135
I480
tp1260
a(I-80
I481
tp1261
a(I-90
I482
tp1262
a(I-110
I483
tp1263
a(I-105
I484
tp1264
a(I-115
I485
tp1265
a(I-105
I486
tp1266
a(I-115
I487
tp1267
a(I-80
I488
tp1268
a(I-90
I489
tp1269
a(I-85
I490
tp1270
a(I-115
I491
tp1271
a(I-65
I492
tp1272
a(I-95
I493
tp1273
a(I-75
I494
tp1274
a(I-80
I495
tp1275
a(I-75
I496
tp1276
a(I-80
I497
tp1277
a(I-105
I498
tp1278
a(I-75
I499
tp1279
a(I-95
I500
tp1280
a(I-90
I501
tp1281
a(I-110
I502
tp1282
a(I-70
I503
tp1283
a(I-85
I504
tp1284
a(I-60
I505
tp1285
a(I-75
I506
tp1286
a(I-90
I507
tp1287
a(I-85
I508
tp1288
a(I-100
I509
tp1289
a(I-85
I510
tp1290
a(I-70
I511
tp1291
a(I-105
I512
tp1292
a(I-95
I513
tp1293
a(I-80
I514
tp1294
a(I-90
I515
tp1295
a(I-120
I516
tp1296
a(I-500
I517
tp1297
a(I-100
I518
tp1298
a(I-100
I519
tp1299
a(I-95
I520
tp1300
a(I-100
I521
tp1301
a(I-65
I522
tp1302
a(I-85
I523
tp1303
a(I-125
I524
tp1304
a(I-85
I525
tp1305
a(I-95
I526
tp1306
a(I-60
I527
tp1307
a(I-95
I528
tp1308
a(I-105
I529
tp1309
a(I-75
I530
tp1310
a(I-110
I531
tp1311
a(I-140
I532
tp1312
a(I-145
I533
tp1313
a(I-85
I534
tp1314
a(I-85
I535
tp1315
a(I-65
I536
tp1316
a(I-75
I537
tp1317
a(I-85
I538
tp1318
a(I-105
I539
tp1319
a(I-80
I540
tp1320
a(I-85
I541
tp1321
a(I-90
I542
tp1322
a(I-95
I543
tp1323
a(I-80
I544
tp1324
a(I-75
I545
tp1325
a(I-95
I546
tp1326
a(I-70
I547
tp1327
a(I-115
I548
tp1328
a(I-90
I549
tp1329
a(I-125
I550
tp1330
a(I-65
I551
tp1331
a(I-110
I552
tp1332
a(I-75
I553
tp1333
a(I-90
I554
tp1334
a(I-80
I555
tp1335
a(I-75
I556
tp1336
a(I-95
I557
tp1337
a(I-75
I558
tp1338
a(I-65
I559
tp1339
a(I-90
I560
tp1340
a(I-85
I561
tp1341
a(I-105
I562
tp1342
a(I-120
I563
tp1343
a(I-85
I564
tp1344
a(I-130
I565
tp1345
a(I-140
I566
tp1346
a(I-75
I567
tp1347
a(I-75
I568
tp1348
a(I-110
I569
tp1349
a(I-85
I570
tp1350
a(I-70
I571
tp1351
a(I-65
I572
tp1352
a(I-85
I573
tp1353
a(I-75
I574
tp1354
a(I-70
I575
tp1355
a(I-110
I576
tp1356
a(I-115
I577
tp1357
a(I-105
I578
tp1358
a(I-80
I579
tp1359
a(I-70
I580
tp1360
a(I-90
I581
tp1361
a(I-65
I582
tp1362
a(I-75
I583
tp1363
a(I-105
I584
tp1364
a(I-65
I585
tp1365
a(I-110
I586
tp1366
a(I-85
I587
tp1367
a(I-85
I588
tp1368
a(I-80
I589
tp1369
a(I-70
I590
tp1370
a(I-100
I591
tp1371
a(I-120
I592
tp1372
a(I-100
I593
tp1373
a(I-60
I594
tp1374
a(I-70
I595
tp1375
a(I-75
I596
tp1376
a(I-75
I597
tp1377
a(I-85
I598
tp1378
a(I-70
I599
tp1379
a(I-75
I600
tp1380
a(I-100
I601
tp1381
a(I-105
I602
tp1382
a(I-80
I603
tp1383
a(I-80
I604
tp1384
a(I-110
I605
tp1385
a(I-85
I606
tp1386
a(I-140
I607
tp1387
a(I-95
I608
tp1388
a(I-90
I609
tp1389
a(I-130
I610
tp1390
a(I-125
I611
tp1391
a(I-80
I612
tp1392
a(I-80
I613
tp1393
a(I-115
I614
tp1394
a(I-95
I615
tp1395
a(I-95
I616
tp1396
a(I-55
I617
tp1397
a(I-65
I618
tp1398
a(I-75
I619
tp1399
a(I-85
I620
tp1400
a(I-100
I621
tp1401
a(I-75
I622
tp1402
a(I-75
I623
tp1403
a(I-80
I624
tp1404
a(I-90
I625
tp1405
a(I-85
I626
tp1406
a(I-110
I627
tp1407
a(I-150
I628
tp1408
a(I-80
I629
tp1409
a(I-70
I630
tp1410
a(I-80
I631
tp1411
a(I-110
I632
tp1412
a(I-130
I633
tp1413
a(I-70
I634
tp1414
a(I-90
I635
tp1415
a(I-120
I636
tp1416
a(I-130
I637
tp1417
a(I-65
I638
tp1418
a(I-110
I639
tp1419
a(I-120
I640
tp1420
a(I-115
I641
tp1421
a(I-90
I642
tp1422
a(I-110
I643
tp1423
a(I-80
I644
tp1424
a(I-65
I645
tp1425
a(I-110
I646
tp1426
a(I-50
I647
tp1427
a(I-95
I648
tp1428
a(I-90
I649
tp1429
a(I-70
I650
tp1430
a(I-75
I651
tp1431
a(I-130
I652
tp1432
a(I-65
I653
tp1433
a(I-80
I654
tp1434
a(I-65
I655
tp1435
a(I-75
I656
tp1436
a(I-70
I657
tp1437
a(I-75
I658
tp1438
a(I-80
I659
tp1439
a(I-55
I660
tp1440
a(I-100
I661
tp1441
a(I-115
I662
tp1442
a(I-115
I663
tp1443
a(I-55
I664
tp1444
a(I-85
I665
tp1445
a(I-95
I666
tp1446
a(I-90
I667
tp1447
a(I-85
I668
tp1448
a(I-135
I669
tp1449
a(I-95
I670
tp1450
a(I-110
I671
tp1451
a(I-90
I672
tp1452
a(I-220
I673
tp1453
a(I-90
I674
tp1454
a(I-80
I675
tp1455
a(I-165
I676
tp1456
a(I-65
I677
tp1457
a(I-120
I678
tp1458
a(I-75
I679
tp1459
a(I-60
I680
tp1460
a(I-70
I681
tp1461
a(I-100
I682
tp1462
a(I-155
I683
tp1463
a(I-95
I684
tp1464
a(I-60
I685
tp1465
a(I-130
I686
tp1466
a(I-90
I687
tp1467
a(I-100
I688
tp1468
a(I-110
I689
tp1469
a(I-80
I690
tp1470
a(I-170
I691
tp1471
a(I-70
I692
tp1472
a(I-65
I693
tp1473
a(I-60
I694
tp1474
a(I-60
I695
tp1475
a(I-155
I696
tp1476
a(I-55
I697
tp1477
a(I-100
I698
tp1478
a(I-80
I699
tp1479
a(I-105
I700
tp1480
a(I-85
I701
tp1481
a(I-60
I702
tp1482
a(I-75
I703
tp1483
a(I-55
I704
tp1484
a(I-80
I705
tp1485
a(I-75
I706
tp1486
a(I-70
I707
tp1487
a(I-100
I708
tp1488
a(I-90
I709
tp1489
a(I-150
I710
tp1490
a(I-80
I711
tp1491
a(I-100
I712
tp1492
a(I-105
I713
tp1493
a(I-85
I714
tp1494
a(I-125
I715
tp1495
a(I-125
I716
tp1496
a(I-145
I717
tp1497
a(I-85
I718
tp1498
a(I-150
I719
tp1499
a(I-90
I720
tp1500
a(I-125
I721
tp1501
a(I-90
I722
tp1502
a(I-105
I723
tp1503
a(I-150
I724
tp1504
a(I-115
I725
tp1505
a(I-85
I726
tp1506
a(I-90
I727
tp1507
a(I-110
I728
tp1508
a(I-115
I729
tp1509
a(I-140
I730
tp1510
a(I-235
I731
tp1511
a(I-80
I732
tp1512
a(I-85
I733
tp1513
a(I-70
I734
tp1514
a(I-85
I735
tp1515
a(I-80
I736
tp1516
a(I-130
I737
tp1517
a(I-85
I738
tp1518
a(I-210
I739
tp1519
a(I-90
I740
tp1520
a(I-60
I741
tp1521
a(I-105
I742
tp1522
a(I-60
I743
tp1523
a(I-125
I744
tp1524
a(I-85
I745
tp1525
a(I-85
I746
tp1526
a(I-80
I747
tp1527
a(I-75
I748
tp1528
a(I-55
I749
tp1529
a(I-105
I750
tp1530
a(I-130
I751
tp1531
a(I-90
I752
tp1532
a(I-75
I753
tp1533
a(I-120
I754
tp1534
a(I-125
I755
tp1535
a(I-100
I756
tp1536
a(I-65
I757
tp1537
a(I-90
I758
tp1538
a(I-110
I759
tp1539
a(I-190
I760
tp1540
a(I-80
I761
tp1541
a(I-65
I762
tp1542
a(I-110
I763
tp1543
a(I-75
I764
tp1544
a(I-80
I765
tp1545
a(I-85
I766
tp1546
a(I-60
I767
tp1547
a(I-70
I768
tp1548
a(I-125
I769
tp1549
a(I-175
I770
tp1550
a(I-235
I771
tp1551
a(I-135
I772
tp1552
a(I-100
I773
tp1553
a(I-50
I774
tp1554
a(I-60
I775
tp1555
a(I-150
I776
tp1556
a(I-110
I777
tp1557
a(I-75
I778
tp1558
a(I-80
I779
tp1559
a(I-140
I780
tp1560
a(I-85
I781
tp1561
a(I-65
I782
tp1562
a(I-85
I783
tp1563
a(I-100
I784
tp1564
a(I-70
I785
tp1565
a(I-805
I786
tp1566
a(I-60
I787
tp1567
a(I-50
I788
tp1568
a(I-280
I789
tp1569
a(I-60
I790
tp1570
a(I-225
I791
tp1571
a(I-85
I792
tp1572
a(I-155
I793
tp1573
a(I-195
I794
tp1574
a(I-70
I795
tp1575
a(I-75
I796
tp1576
a(I-95
I797
tp1577
a(I-80
I798
tp1578
a(I-70
I799
tp1579
a(I-95
I800
tp1580
a(I-130
I801
tp1581
a(I-265
I802
tp1582
a(I-85
I803
tp1583
a(I-130
I804
tp1584
a(I-80
I805
tp1585
a(I-135
I806
tp1586
a(I-130
I807
tp1587
a(I-145
I808
tp1588
a(I-230
I809
tp1589
a(I-80
I810
tp1590
a(I-195
I811
tp1591
a(I-70
I812
tp1592
a(I-450
I813
tp1593
a(I-180
I814
tp1594
a(I-890
I815
tp1595
a(I-105
I816
tp1596
a(I-160
I817
tp1597
a(I-95
I818
tp1598
a(I-105
I819
tp1599
a(I-165
I820
tp1600
a(I-205
I821
tp1601
a(I-170
I822
tp1602
a(I-185
I823
tp1603
a(I-80
I824
tp1604
a(I-70
I825
tp1605
a(I-170
I826
tp1606
a(I-900
I827
tp1607
a(I-290
I828
tp1608
a(I-100
I829
tp1609
a(I-75
I830
tp1610
a(I-145
I831
tp1611
a(I-490
I832
tp1612
a(I-55
I833
tp1613
a(I-50
I834
tp1614
a(I-65
I835
tp1615
a(I-70
I836
tp1616
a(I-70
I837
tp1617
a(I-295
I838
tp1618
a(I-75
I839
tp1619
a(I-85
I840
tp1620
a(I-105
I841
tp1621
a(I-75
I842
tp1622
a(I-50
I843
tp1623
a(I-100
I844
tp1624
a(I-80
I845
tp1625
a(I-70
I846
tp1626
a(I-55
I847
tp1627
a(I-80
I848
tp1628
a(I-90
I849
tp1629
a(I-115
I850
tp1630
a(I-755
I851
tp1631
a(I-165
I852
tp1632
a(I-95
I853
tp1633
a(I-775
I854
tp1634
a(I-290
I855
tp1635
a(I-65
I856
tp1636
a(I-60
I857
tp1637
a(I-130
I858
tp1638
a(I-110
I859
tp1639
a(I-60
I860
tp1640
a(I-110
I861
tp1641
a(I-170
I862
tp1642
a(I-560
I863
tp1643
a(I-80
I864
tp1644
a(I-50
I865
tp1645
a(I-60
I866
tp1646
a(I-100
I867
tp1647
a(I-80
I868
tp1648
a(I-105
I869
tp1649
a(I-70
I870
tp1650
a(I-130
I871
tp1651
a(I-185
I872
tp1652
a(I-90
I873
tp1653
a(I-130
I874
tp1654
a(I-130
I875
tp1655
a(I-75
I876
tp1656
a(I-120
I877
tp1657
a(I-840
I878
tp1658
a(I-110
I879
tp1659
a(I-135
I880
tp1660
a(I-75
I881
tp1661
a(I-60
I882
tp1662
a(I-455
I883
tp1663
a(I-205
I884
tp1664
a(I-170
I885
tp1665
a(I-115
I886
tp1666
a(I-115
I887
tp1667
a(I-100
I888
tp1668
a(I-105
I889
tp1669
a(I-160
I890
tp1670
a(I-270
I891
tp1671
a(I-315
I892
tp1672
a(I-100
I893
tp1673
a(I-80
I894
tp1674
a(I-70
I895
tp1675
a(I-240
I896
tp1676
a(I-85
I897
tp1677
a(I-100
I898
tp1678
a(I-95
I899
tp1679
a(I-440
I900
tp1680
a(I-70
I901
tp1681
a(I-130
I902
tp1682
a(I-240
I903
tp1683
a(I-505
I904
tp1684
a(I-300
I905
tp1685
a(I-85
I906
tp1686
a(I-175
I907
tp1687
a(I-205
I908
tp1688
a(I-115
I909
tp1689
a(I-240
I910
tp1690
a(I-155
I911
tp1691
a(I-70
I912
tp1692
a(I-180
I913
tp1693
a(I-215
I914
tp1694
a(I-640
I915
tp1695
a(I-365
I916
tp1696
a(I-105
I917
tp1697
a(I-85
I918
tp1698
a(I-220
I919
tp1699
a(I-420
I920
tp1700
a(I-70
I921
tp1701
a(I-160
I922
tp1702
a(I-240
I923
tp1703
a(I-50
I924
tp1704
a(I-85
I925
tp1705
a(I-100
I926
tp1706
a(I-100
I927
tp1707
a(I-70
I928
tp1708
a(I-120
I929
tp1709
a(I-70
I930
tp1710
a(I-70
I931
tp1711
a(I-75
I932
tp1712
a(I-410
I933
tp1713
a(I-70
I934
tp1714
a(I-85
I935
tp1715
a(I-60
I936
tp1716
a(I-115
I937
tp1717
a(I-115
I938
tp1718
a(I-90
I939
tp1719
a(I-60
I940
tp1720
a(I-70
I941
tp1721
a(I-50
I942
tp1722
a(I-85
I943
tp1723
a(I-230
I944
tp1724
a(I-460
I945
tp1725
a(I-70
I946
tp1726
a(I-445
I947
tp1727
a(I-120
I948
tp1728
a(I-770
I949
tp1729
a(I-55
I950
tp1730
a(I-75
I951
tp1731
a(I-130
I952
tp1732
a(I-90
I953
tp1733
a(I-95
I954
tp1734
a(I-130
I955
tp1735
a(I-80
I956
tp1736
a(I-300
I957
tp1737
a(I-415
I958
tp1738
a(I-170
I959
tp1739
a(I-975
I960
tp1740
a(I-80
I961
tp1741
a(I-95
I962
tp1742
a(I-295
I963
tp1743
a(I-165
I964
tp1744
a(I-240
I965
tp1745
a(I-205
I966
tp1746
a(I-50
I967
tp1747
a(I-75
I968
tp1748
a(I-70
I969
tp1749
a(I-80
I970
tp1750
a(I-180
I971
tp1751
a(I-85
I972
tp1752
a(I-85
I973
tp1753
a(I-115
I974
tp1754
a(I-75
I975
tp1755
a(I-75
I976
tp1756
a(I-75
I977
tp1757
a(I-430
I978
tp1758
a(I-60
I979
tp1759
a(I-80
I980
tp1760
a(I-60
I981
tp1761
a(I-60
I982
tp1762
a(I-75
I983
tp1763
a(I-50
I984
tp1764
a(I-60
I985
tp1765
a(I-85
I986
tp1766
a(I-140
I987
tp1767
a(I-50
I988
tp1768
a(I-130
I989
tp1769
a(I-90
I990
tp1770
a(I-110
I991
tp1771
a(I-105
I992
tp1772
a(I-130
I993
tp1773
a(I-80
I994
tp1774
a(I-80
I995
tp1775
a(I-75
I996
tp1776
a(I-140
I997
tp1777
a(I-105
I998
tp1778
a(I-85
I999
tp1779
as.